(dp0
I0
(dp1
sI1
(dp2
I0
(dp3
S'text'
p4
VAT_USER utkarash u r the best man this x1 is ur's buddy
p5
sS'tweet'
p6
V@MTVRoadies #utkarash u r the best man this X1 is ur's buddy
p7
sS'label'
p8
S'positive'
p9
sssI2
(dp10
sI3
(dp11
sI4
(dp12
sI5
(dp13
s.