(dp0
I0
(lp1
VRT @AamAadmiParty: @ArvindKejriwal responds to public petition,agrees to debate with Modi &amp; Rahul Gandhi. \u000a\u000ahttp://t.co/dxbFZ0m08k \u000a\u000a#CongB\u2026
p2
aVRT @muntaziraapka: "@ssagar561: Arvind Kejriwal Road Show In  Haryana, #CongBjpForeignFunded  http://t.co/otKgHhmNDC"#AK49InHaryana
p3
aVCall himself Anna fan and Ghandian, but violent. Ghandhi will be sorry to know this.  http://t.co/SbNYvpSZAh
p4
aVRT @waglenikhil: U may agree or disagree with Arvind Kejriwal n AAP, but one thing is clear: he has made otherwise boring election interest\u2026
p5
aVRT @dhume: Can't say about Varanasi, but it's pretty clear that Arvind Kejriwal will win in a landslide from both NDTV South and CNN-IBN Ce\u2026
p6
aVThe same context of using "Arvind Kejriwal" and AK, Modi ji should note that NM means "Never Mind" and Narendra Modi #Bakbak #NaMoSenseless
p7
aVRT @dhume: Can't say about Varanasi, but it's pretty clear that Arvind Kejriwal will win in a landslide from both NDTV South and CNN-IBN Ce\u2026
p8
aVRT @AAPUdupi: #BJPLogic: Inducted Muthalik. Removed him. Inducted Sabir Ali. May remove him. And they call Arvind Kejriwal a man of U turns?
p9
aVRT @DabangGujarati: Aamir Khan has specifically complained for misusing his pic by Arvind Kejriwal &amp; AAP for votes to Election Commission #\u2026
p10
aVRT @dhume: Can't say about Varanasi, but it's pretty clear that Arvind Kejriwal will win in a landslide from both NDTV South and CNN-IBN Ce\u2026
p11
aVthe Satyamev Jayate essential followup with issues earlier raised. http://t.co/yBW2OTuboX
p12
aVIf you exactly know, why don't you spell out? Why this sarcasm? Are you gripped by fear of losing?  http://t.co/q5PVaof3ih
p13
aVRT @sunandavashisht: Did Sh. Arvind Kejriwal really live tweet when he was attacked? That is some reality show!
p14
aVRT @dhume: Can't say about Varanasi, but it's pretty clear that Arvind Kejriwal will win in a landslide from both NDTV South and CNN-IBN Ce\u2026
p15
aVRT @dhume: Can't say about Varanasi, but it's pretty clear that Arvind Kejriwal will win in a landslide from both NDTV South and CNN-IBN Ce\u2026
p16
aVRT @dhume: Can't say about Varanasi, but it's pretty clear that Arvind Kejriwal will win in a landslide from both NDTV South and CNN-IBN Ce\u2026
p17
aVRT @dhume: Can't say about Varanasi, but it's pretty clear that Arvind Kejriwal will win in a landslide from both NDTV South and CNN-IBN Ce\u2026
p18
aVRT @timesnow: Arvind Kejriwal was attacked by an unidentified man while he was campaigning in Bhiwani, Haryana. http://t.co/0WgFHjZWfn
p19
aVNetaji Bose comrade supporting #AAP !!! http://t.co/IoxzcrS4Wn
p20
aVarvind kejriwal coughed 17 times today yesterday he coughed 21 times
p21
aVRT @BabaBakChod: Whenever Mukesh Ambani forgets his Swiss Bank account number he directly calls Arvind Kejriwal.
p22
aVRT @dhume: Can't say about Varanasi, but it's pretty clear that Arvind Kejriwal will win in a landslide from both NDTV South and CNN-IBN Ce\u2026
p23
aVAAP supporters thrash Kejriwal's attacker: Aam Aadmi Party leader Arvind Kejriwal was attacked and hit on the ... http://t.co/4Hs3Elh3Az
p24
aVRT @dhume: Can't say about Varanasi, but it's pretty clear that Arvind Kejriwal will win in a landslide from both NDTV South and CNN-IBN Ce\u2026
p25
aVRT @dhume: Can't say about Varanasi, but it's pretty clear that Arvind Kejriwal will win in a landslide from both NDTV South and CNN-IBN Ce\u2026
p26
aVRT @dhume: Can't say about Varanasi, but it's pretty clear that Arvind Kejriwal will win in a landslide from both NDTV South and CNN-IBN Ce\u2026
p27
aVRT @timesnow: Arvind Kejriwal was attacked by an unidentified man while he was campaigning in Bhiwani, Haryana. http://t.co/0WgFHjZWfn
p28
aV'Anna fan' attacks Kejriwal during rally in Haryana: A man calling himself a supporter of social activist Anna... http://t.co/yQwTuamI9B
p29
aVRT @ratanmaitra: CALL For Debate 2014 http://t.co/0raxnioXQ6 \u000a\u000aResponse of @ArvindKejriwal - \u000ahttp://t.co/jqlGPm6iy7
p30
aVMany disgruntled fans of Anna &amp; Kejriwal are going to punch AK in coming days. This is just a trailer: http://t.co/vwl2d8zmXL
p31
aVUnion Leader made a Managing Director of the same company that is called Arvind Kejriwal.
p32
aVRT @ANI_news: This is expected from them, I am upset about my supporters thrashing the attacker: Arvind Kejriwal on his attack http://t.co/\u2026
p33
aVRT @dhume: Can't say about Varanasi, but it's pretty clear that Arvind Kejriwal will win in a landslide from both NDTV South and CNN-IBN Ce\u2026
p34
aVRT @dhume: Can't say about Varanasi, but it's pretty clear that Arvind Kejriwal will win in a landslide from both NDTV South and CNN-IBN Ce\u2026
p35
aVVoting for AAP is a big mistake : Opinion, News - India Today http://t.co/PSiX2q4p1a via @IndiaToday
p36
aVBCCI revamp needed! Waiting for Arvind  kejriwal to sit for dharna against Srinivasan \U0001f603 #BCCI
p37
aVNo matter Arvind Kejriwal win or loose the Election.... I am satisfied and happy that at least a single person is... http://t.co/q4Swbv0Qmt
p38
aVRT @fdi_r: This is why Arvind Kejriwal is Pakistani agent. \u0928\u092e\u094b\u0902 \u0928\u092e\u094b\u0902 http://t.co/4EKe3wyGvH
p39
aVRT @dhume: Can't say about Varanasi, but it's pretty clear that Arvind Kejriwal will win in a landslide from both NDTV South and CNN-IBN Ce\u2026
p40
aVAsk Narendra Modi, Arvind Kejriwal and Rahul Gandhi to agree to a national debate before the elections. http://t.co/xPi3EqpPSi @Change4India
p41
aVIndia - #LokSabhaElection: Arvind #Kejriwal attacked in Haryana, his supporters turn violent http://t.co/4t8zEj1xQP
p42
aVRT @dhume: Can't say about Varanasi, but it's pretty clear that Arvind Kejriwal will win in a landslide from both NDTV South and CNN-IBN Ce\u2026
p43
aVRT @apshaha: #Mayankgandhi #AAP Arvind Kejriwal was the only politician who said Yes, we want social audit! Rest were going "errr,woh,err, \u2026
p44
aVRT @ajayendar: Mehr Tarar is tweeting to Arvind Kejriwal. Somebody cc the tweets to Kejriwal's wife please so she can block her.\u000ahttps://t.\u2026
p45
aVRT @jhunjhunwala: Where is Arvind Kejriwal? He should oppose  lal batti culture on the Stumps.
p46
aVRT @doctoratlarge: For Arvind Kejriwal:\u000aFirst they ignore you\u000aThen they laugh at you\u000aThen they fight you\u000aThen you win\u000aThen you run from res\u2026
p47
aVRT @dhume: Can't say about Varanasi, but it's pretty clear that Arvind Kejriwal will win in a landslide from both NDTV South and CNN-IBN Ce\u2026
p48
aVRT @dhume: Can't say about Varanasi, but it's pretty clear that Arvind Kejriwal will win in a landslide from both NDTV South and CNN-IBN Ce\u2026
p49
aVRT @apshaha: #Mayankgandhi #AAP Arvind Kejriwal was the only politician who said Yes, we want social audit! Rest were going "errr,woh,err, \u2026
p50
aVMr. Arvind kejriwal sorry to say but your deeds are letting them down on national television #shyamgupta on india news.
p51
asI1
(lp52
VRT @apshaha: #Mayankgandhi #AAP Arvind Kejriwal was the only politician who said Yes, we want social audit! Rest were going "errr,woh,err, \u2026
p53
aVRT @IndiaToday: Opinion: Voting for AAP is a big mistake, says Rajiv Kumar \u000ahttp://t.co/TM59vQdKiT
p54
aVRT @IndiaToday: Opinion: Voting for AAP is a big mistake, says Rajiv Kumar \u000ahttp://t.co/TM59vQdKiT
p55
aVRT @SirJadeja: Supreme Court wants to ban #CSK so that Ambani's team #MI can win #IPL7. Dosto ye Supreme Court bhi Ambani se mili hui hai: \u2026
p56
aVRT @apshaha: #mayankgandhi #AAP On ABP News...Arvind Kejriwal is awesome! All great answers!And Amir Khan decimated the BJP guy,Sudhanshu T\u2026
p57
aVRT @IndiaToday: Opinion: Voting for AAP is a big mistake, says Rajiv Kumar \u000ahttp://t.co/TM59vQdKiT
p58
aVFull Video: Watch Exclusive Interview of Arvind Kejriwal @AamAadmiParty Tussi Great Ho Sir @ArvindKejriwal  http://t.co/u3hZ0E0GcV
p59
aVRT @apshaha: #mayankgandhi #AAP On ABP News...Arvind Kejriwal is awesome! All great answers!And Amir Khan decimated the BJP guy,Sudhanshu T\u2026
p60
aVRT @apshaha: #mayankgandhi #AAP On ABP News...Arvind Kejriwal is awesome! All great answers!And Amir Khan decimated the BJP guy,Sudhanshu T\u2026
p61
aVRT @apshaha: #Mayankgandhi #AAP Arvind Kejriwal was the only politician who said Yes, we want social audit! Rest were going "errr,woh,err, \u2026
p62
aVRT @apshaha: #Mayankgandhi #AAP Arvind Kejriwal was the only politician who said Yes, we want social audit! Rest were going "errr,woh,err, \u2026
p63
aVRT @apshaha: #mayankgandhi #AAP On ABP News...Arvind Kejriwal is awesome! All great answers!And Amir Khan decimated the BJP guy,Sudhanshu T\u2026
p64
aVRT @bharat_builder: Answer by Sandeep Thambi to Has Arvind Kejriwal been successful in brainwashing an entire nation? http://t.co/69HyOfvbsj
p65
aVRT @apshaha: #mayankgandhi #AAP On ABP News...Arvind Kejriwal is awesome! All great answers!And Amir Khan decimated the BJP guy,Sudhanshu T\u2026
p66
aVRT @IndiaToday: Opinion: Voting for AAP is a big mistake, says Rajiv Kumar \u000ahttp://t.co/TM59vQdKiT
p67
aVRT @apshaha: #mayankgandhi #AAP On ABP News...Arvind Kejriwal is awesome! All great answers!And Amir Khan decimated the BJP guy,Sudhanshu T\u2026
p68
aVRT @apshaha: #Mayankgandhi #AAP Arvind Kejriwal was the only politician who said Yes, we want social audit! Rest were going "errr,woh,err, \u2026
p69
aVRT @Kumar_Ke5hav: @ankitlal Eagerly waiting for Chetan Bhagat's reply on the letter of Arvind Kejriwal to Narendra Modi. #GasPeKharcha
p70
aVRT @shobhapande: Arvind Kejriwal, a messiah against crony capitalists - Economic Times http://t.co/LCIKl3dtEB AAP a breath of fresh air for\u2026
p71
aVRT @crguna: Pardon the french but this is what BaBa Ramdev said: \u000a\u000a"Even when I go to piss or shit, I gather more crowds than Arvind Kejriw\u2026
p72
aVRT @crguna: Pardon the french but this is what BaBa Ramdev said: \u000a\u000a"Even when I go to piss or shit, I gather more crowds than Arvind Kejriw\u2026
p73
aVArvind Kejriwal\u2019s 4 lies about Gujarat busted http://t.co/ZgxQz5aYsf via @NitiCentral
p74
aVRT @Vote4AAP: I wrote to Mr Modi asking if he will bring down the gas price if he comes to power: Arvind Kejriwal. \u000a\u000a#KejriwalInHaryana
p75
aVRT @apshaha: #Mayankgandhi #AAP Arvind Kejriwal was the only politician who said Yes, we want social audit! Rest were going "errr,woh,err, \u2026
p76
aVRT @apshaha: #mayankgandhi #AAP On ABP News...Arvind Kejriwal is awesome! All great answers!And Amir Khan decimated the BJP guy,Sudhanshu T\u2026
p77
aVRT @apshaha: #mayankgandhi #AAP On ABP News...Arvind Kejriwal is awesome! All great answers!And Amir Khan decimated the BJP guy,Sudhanshu T\u2026
p78
aVRT @apshaha: #mayankgandhi #AAP On ABP News...Arvind Kejriwal is awesome! All great answers!And Amir Khan decimated the BJP guy,Sudhanshu T\u2026
p79
aVRT @apshaha: #mayankgandhi #AAP On ABP News...Arvind Kejriwal is awesome! All great answers!And Amir Khan decimated the BJP guy,Sudhanshu T\u2026
p80
aVRT @apshaha: #mayankgandhi #AAP On ABP News...Arvind Kejriwal is awesome! All great answers!And Amir Khan decimated the BJP guy,Sudhanshu T\u2026
p81
aVRT @apshaha: #mayankgandhi #AAP On ABP News...Arvind Kejriwal is awesome! All great answers!And Amir Khan decimated the BJP guy,Sudhanshu T\u2026
p82
aVRT @apshaha: #mayankgandhi #AAP On ABP News...Arvind Kejriwal is awesome! All great answers!And Amir Khan decimated the BJP guy,Sudhanshu T\u2026
p83
aVRT @apshaha: #mayankgandhi #AAP On ABP News...Arvind Kejriwal is awesome! All great answers!And Amir Khan decimated the BJP guy,Sudhanshu T\u2026
p84
aVRT @AAPTube: #AAP Amir Khan Asked few question to Arvind Kejriwal http://t.co/azIjOzCFB5
p85
aVRT @IndiaToday: Opinion: Voting for AAP is a big mistake, says Rajiv Kumar \u000ahttp://t.co/TM59vQdKiT
p86
aVRT @apshaha: #Mayankgandhi #AAP Arvind Kejriwal was the only politician who said Yes, we want social audit! Rest were going "errr,woh,err, \u2026
p87
aVGovernment issues notice to Arvind Kejriwal, asks for Rs 85k per month rent - The Economic Times http://t.co/pGUS0JuhUK
p88
aVRT @thekiranbedi: (Also do inform when has his food or goes to sleep?)\u000a@ANI_news: Arvind Kejriwal arrives back in Delhi from Varanasi http:\u2026
p89
aVI just landed in New Delhi having 16 point questionnaire for Arvind Kejriwal &amp; #AAP.
p90
aVRT @pkurup: news broadcasters have contradicted themselves by issuing a threat to #AAP. More here: http://t.co/wUrKVm13UT
p91
aVRT @TwiitterCOP: You can make fun of Arvind Kejriwal, bur He is not a funny thing. He is a Traitor, A very dangerous thing for the Nation. \u2026
p92
aVStudy: Top 3 Reasons People Vote for #AAP = 1)Sick of Corrupt Congress 2)Want a New Party 3)They Like Arvind Kejriwal http://t.co/oFjerG0Ljp
p93
aVRT @Vaishali_BJYM: I will go to Varanasi on 10th April and campaign against Kejriwal and tell people about his lies-Vinod Kumar Binny http:\u2026
p94
aVRT @AAPKaJawab: Question &amp; Answer Session With Arvind Kejriwal ( @ArvindKejriwal ) &amp; Ashutosh ( @ashutosh83B ) - http://t.co/j6vNBEMl8P
p95
aVGovernment issues notice to Arvind Kejriwal, asks for Rs 85k per month rent - The Economic Times http://t.co/HmINqWFbma
p96
aVRT @apshaha: #mayankgandhi #AAP On ABP News...Arvind Kejriwal is awesome! All great answers!And Amir Khan decimated the BJP guy,Sudhanshu T\u2026
p97
aVRT @tinucherian: I want to see an US Presidential style public debate between Narendra Modi,  Rahul Gandhi &amp; Arvind Kejriwal. \u000aRT if you wa\u2026
p98
aVUnion Leader made a Managing Director of the same company that is called Arvind Kejriwal.
p99
aVRT @zenacostawrites: So the 'patriots' who killed Gandhi for being a "Pakistani" agent are now calling Arvind Kejriwal a Pakistani agent ? \u2026
p100
aVRT @arunshourie8: Before visiting hospitals in GUJRAT,Arvind Kejriwal should have cared  for192 people who died due to cold in delhi wen he\u2026
p101
asI2
(lp102
VRT @BabaBakChod: Whenever Mukesh Ambani forgets his Swiss Bank account number he directly calls Arvind Kejriwal.
p103
aVRT @fdi_r: This is why Arvind Kejriwal is Pakistani agent. \u0928\u092e\u094b\u0902 \u0928\u092e\u094b\u0902 http://t.co/4EKe3wyGvH
p104
aVRT @amin4uin: MT "@amartyarajput: This is why Arvind Kejriwal is Pakistani agent. \u0928\u092e\u094b\u0902 \u0928\u092e\u094b\u0902\u000ahttp://t.co/7RcvdfxqAO"
p105
aVRT @JudgeArnab: A sperm held a referendum with other sperms before fertilization. Today that sperm is known as Arvind Kejriwal. #AK49
p106
aVRT @chinmaykrvd: AAP is lying saying its opposing Jayaprakash Narayan as he supports FDI and GM crops but real reason said to jealousy of A\u2026
p107
aVRT @fdi_r: This is why Arvind Kejriwal is Pakistani agent. \u0928\u092e\u094b\u0902 \u0928\u092e\u094b\u0902 http://t.co/4EKe3wyGvH
p108
aVRT @MQM_Meme: What is the similarity between Altaf Hussain and Arvind Kejriwal? #MQM #AAP http://t.co/e2dZ2xe4OH
p109
aVRT @prash13anth: We keep guessing why #AK49 never criticizes or attacks mother of all corruption Sonia Gandhi.. He is reason: http://t.co/R\u2026
p110
aVRT @LynneHaywood: #India #elections roundup:\u000aArvind Kejriwal thanks EC for deferring gas price hike\u000aThe Indian Express\u000ahttp://t.co/t8SmwAhT\u2026
p111
aVRT @fdi_r: This is why Arvind Kejriwal is Pakistani agent. \u0928\u092e\u094b\u0902 \u0928\u092e\u094b\u0902 http://t.co/4EKe3wyGvH
p112
aVRT @fdi_r: This is why Arvind Kejriwal is Pakistani agent. \u0928\u092e\u094b\u0902 \u0928\u092e\u094b\u0902 http://t.co/4EKe3wyGvH
p113
aVRT @fdi_r: This is why Arvind Kejriwal is Pakistani agent. \u0928\u092e\u094b\u0902 \u0928\u092e\u094b\u0902 http://t.co/4EKe3wyGvH
p114
aVRT @NaMo4PM: Arvind Kejriwal\u2019s 4 lies about Gujarat busted\u000a\u000aKejriwal\u2019s lie #1: If Modi comes to power, all the farmers will... http://t.co/\u2026
p115
aVRT @MQMPakistani: What is the similarity between Altaf Hussain and Arvind Kejriwal? #MQM\u000a\u000avia @MQM_Meme http://t.co/KshFe4xktv
p116
aVArvind Kejriwal's power with\u000azero MPs,\u000a27 MLAs,\u000ano govt.\u000aHe can save 10,000 Cr. for country with 1 letter.\u000aWhat can u do Congress &amp; BJP ??
p117
aVRT @MQM_Meme: What is the similarity between Altaf Hussain and Arvind Kejriwal? #MQM #AAP http://t.co/e2dZ2xe4OH
p118
aVReporters are good; problem is with owners of media houses: Arvind Kejriwal #AAP #AAPDharna
p119
aVRT @MQMPakistani: What is the similarity between Altaf Hussain and Arvind Kejriwal? #MQM\u000a\u000avia @MQM_Meme http://t.co/KshFe4xktv
p120
aVArvind Kejriwal: Media persons are good people but the problem is with the owners of the media houses.  #KrantiKariAAPGovt"
p121
aVMr @narendramodi , pls decide whether AK is Pakistani agent or Congress agent, both Pak and Congress are confused - http://t.co/CmzQ51Y82L
p122
aVArvind Kejriwal Addressing Families Affected by 1984 Riots at Jantar Mantar, @GulPanag  http://t.co/hpynTW0UxM
p123
aVRT @crguna: Don't throw Ink on Arvind Kejriwal He will use it to rewrite history. http://t.co/xtJPvl762f
p124
aVRT @mypunam: AAP wave slowly developing......Arvind Kejriwal Varanasi rally is just the tip of Iceberg..... http://t.co/4DoEAYHBJi
p125
aVRT @BabaBakChod: Whenever Mukesh Ambani forgets his Swiss Bank account number he directly calls Arvind Kejriwal.
p126
aVRT @dhume: Beware the Tax Man: Why Arvind Kejriwal is the most dangerous politician in India. [My take] #LongRead #AAP  http://t.co/hOXRCkE\u2026
p127
aVRT @AnjaniShahi: Listen this video &amp; judge! http://t.co/3OlYay3Cwh. @SardesaiRajdeep : Why did @ibnlive edit the video to promote Arvind Ke\u2026
p128
aVRT @dhume: Beware the Tax Man: Why Arvind Kejriwal is the most dangerous politician in India. [My take] #LongRead #AAP  http://t.co/hOXRCkE\u2026
p129
aVRT @Joydas: Narendra Modi calls Arvind Kejriwal #AK49. If only he was AK-47 or AK-56, Modi Ji would have worshipped him http://t.co/UigOsnB\u2026
p130
aVRT @AamAadmiParty: Gas price hike extended for 2 months on request of Arvind Kejriwal to the EC. \u000aRead more: http://t.co/WYAxdGLJ2p http://\u2026
p131
aVRT @AamAadmiParty: Gas price hike extended for 2 months on request of Arvind Kejriwal to the EC. \u000aRead more: http://t.co/WYAxdGLJ2p http://\u2026
p132
aVKejriwal, Antony agents of Pak: NaMo - such words not expected from person who is likely to occupy PMs chair?? http://t.co/rzsyna8Ffc
p133
aVRT @Hello_AAP: \u201c@BDUTT: "If I wanted a safe seat like others I wouldn't have chosen Banaras". The full interview with Ak here: http://t.co/\u2026
p134
aVRT @uForm_Post: Congress is hand in gloves with #AAPDrama. They are enjoying every bit of Arvind Kejriwal hogging media coverage eclipsing \u2026
p135
aVRT @ShreeMandadi: Narendra Modi of BJP, Rahul Gandhi of the Congress and Arvind Kejriwal of the Aam Admi Party CALL FOR DEBATE 2014 http://\u2026
p136
aVArvind Kejriwal caught on camera expressing his "real" motives behind running from Delhi. http://t.co/jNxC8NrKBG
p137
aVCongress is hand in gloves with #AAPDrama. They are enjoying every bit of Arvind Kejriwal hogging media coverage eclipsing Modi.
p138
aVRT @IndiaFactsOrg: Arvind Kejriwal's close aide, Manish Sisodia, is alleged to have diverted foreign funds meant for his NGO, Kabir -  http\u2026
p139
aVRT @ShreeMandadi: Narendra Modi of BJP, Rahul Gandhi of the Congress and Arvind Kejriwal of the Aam Admi Party CALL FOR DEBATE 2014 http://\u2026
p140
aVRT @MQM_Meme: What is the similarity between Altaf Hussain and Arvind Kejriwal? #MQM #AAP http://t.co/e2dZ2xe4OH
p141
aVRT @AamAadmiParty: Gas price hike extended for 2 months on request of Arvind Kejriwal to the EC. \u000aRead more: http://t.co/WYAxdGLJ2p http://\u2026
p142
aV@ArvindKejriwal is accused of 9+ criminal cases.How come he can contest election as per #AAPs ideology #justasking:) http://t.co/43rnFt6YcN
p143
aVRT @ShreeMandadi: Narendra Modi of BJP, Rahul Gandhi of the Congress and Arvind Kejriwal of the Aam Admi Party CALL FOR DEBATE 2014 http://\u2026
p144
aVWhat is the similarity between Altaf Hussain and Arvind Kejriwal? #MQM\u000a\u000avia @MQM_Meme http://t.co/KshFe4xktv
p145
aVRT @ShreeMandadi: Narendra Modi of BJP, Rahul Gandhi of the Congress and Arvind Kejriwal of the Aam Admi Party CALL FOR DEBATE 2014 http://\u2026
p146
aVRT @MQM_Meme: What is the similarity between Altaf Hussain and Arvind Kejriwal? #MQM #AAP http://t.co/e2dZ2xe4OH
p147
aVNarendra Modi of BJP, Rahul Gandhi of the Congress and Arvind Kejriwal of the Aam Admi Party CALL FOR DEBATE 2014 http://t.co/0bFh1M6LnD
p148
aVRT @BabaBakChod: Whenever Mukesh Ambani forgets his Swiss Bank account number he directly calls Arvind Kejriwal.
p149
aVWhat is the similarity between Altaf Hussain and Arvind Kejriwal? #MQM #AAP http://t.co/e2dZ2xe4OH
p150
aVRT @IndiaSpeaksPR: Please use proper language against Arvind Kejriwal or else he will call you a chor, claim you are in Ambani's pocket &amp; t\u2026
p151
asI3
(lp152
VRT @Viewology: Bjp supporters who predicted arvind kejriwal losing security deposit at Varanasi in a huddle.. That's the power of the idea \u2026
p153
aV#indianpolitics Arvind Kejriwal to highlight polluted Ganga, sewer &amp; plight of weavers in its ... - Economic T... http://t.co/XbCwkso7G8
p154
aV#indianpolitics Arvind Kejriwal to highlight polluted Ganga, sewer &amp; plight of weavers in its ... - Economic T... http://t.co/If095H1N0v
p155
aV#indianpolitics Arvind Kejriwal to highlight polluted Ganga, sewer &amp; plight of weavers in its ... - Economic T... http://t.co/HVvAzLWG6z
p156
aV#indianpolitics Arvind Kejriwal to highlight polluted Ganga, sewer &amp; plight of weavers in its ... - Economic T... http://t.co/fuU2OWLQ00
p157
aV#indianpolitics Arvind Kejriwal to highlight polluted Ganga, sewer &amp; plight of weavers in its ... - Economic T... http://t.co/e7UGlwQEHa
p158
aV#indianpolitics Arvind Kejriwal to highlight polluted Ganga, sewer &amp; plight of weavers in its ... - Economic T... http://t.co/4R3opBV7hX
p159
aVRT @The_Sleigher: If Arvind Kejriwal becomes the PM, United Nations will become a Permanent Member of India.\u000a#AAPwave
p160
aVArvind Kejriwal to highlight polluted Ganga, sewer &amp; plight of weavers in its ... - Economic Times: Economic T... http://t.co/3gRPdO2LBI
p161
aVArvind Kejriwal to highlight polluted Ganga, sewer &amp; plight of weavers in its ... - Economic Times: Economic T... http://t.co/17dzwNB6Oz
p162
aVArvind Kejriwal to highlight polluted Ganga, sewer &amp; plight of weavers in its ... - Economic Times: Economic T... http://t.co/IwvGG9yWzD
p163
aVArvind Kejriwal to highlight polluted Ganga, sewer &amp; plight of weavers in its ... - Economic Times: Economic T... http://t.co/Tmde5DxoVx
p164
aVArvind Kejriwal to highlight polluted Ganga, sewer &amp; plight of weavers in its ... - Economic Times: Economic T... http://t.co/D8aL6e0TBE
p165
aVArvind Kejriwal to highlight polluted Ganga, sewer &amp; plight of weavers in its ... - Economic Times: Economic T... http://t.co/qQzbm9TTsJ
p166
aVArvind Kejriwal to highlight polluted Ganga, sewer &amp; plight of weavers in its ... - Economic Times: Economic T... http://t.co/UloOsHS9XE
p167
aVArvind Kejriwal to highlight polluted Ganga, sewer &amp; plight of weavers in its ... - Economic Times: Economic T... http://t.co/udHGM9b3hl
p168
aVArvind Kejriwal to highlight polluted Ganga, sewer &amp; plight of weavers in its ... - Economic Times: Economic T... http://t.co/rHaxVNOCcZ
p169
aVArvind Kejriwal to highlight polluted Ganga, sewer &amp; plight of weavers in its ... - Economic Times: Economic T... http://t.co/jsvuuLHAFH
p170
aV#News Arvind Kejriwal to highlight polluted Ganga, sewer &amp; plight of weavers in its ... - Eco... http://t.co/mS6VydU9L4 #FollowBack #TFB
p171
aV#News #India Arvind Kejriwal to highlight polluted Ganga, sewer &amp; plight of weavers in its ... - Econo... http://t.co/K3LGdzHuEt #Follow
p172
aVArvind Kejriwal to highlight polluted Ganga, sewer &amp; plight of weavers in its ... - Economic Times: Economic T... http://t.co/yb3VFyXNqF
p173
aVDTN World News: Arvind Kejriwal to highlight polluted Ganga, sewer &amp; plight of weavers in its ... - Economic T... http://t.co/lSbzYq0bgn
p174
aVRT @indiacause: Who is behind AAP &amp; Arvind Kejriwal, CIA or ISI?!  Pakistan\u2019s mysterious love for Indian anti-corruption... http://t.co/c9K\u2026
p175
aVRT @SLB_KR: "I want to see an US Presidential style public debate between Narendra Modi,  Rahul Gandhi &amp; Arvind Kejriwal. \u000aRT if you want s\u2026
p176
aVRT @AAPInNews: Arvind Kejriwal to highlight polluted Ganga, sewer &amp; plight of weavers in its Varanasi campaign http://t.co/hiy3R6jEfB #AAP
p177
aV#latestnews Arvind Kejriwal to highlight polluted Ganga, sewer &amp; plight of weavers in its ... - Economic Times... http://t.co/TlmEkNXzvl
p178
aV#latestnews Arvind Kejriwal to highlight polluted Ganga, sewer &amp; plight of weavers in its ... - Economic Times... http://t.co/mJ7jqPYJJ2
p179
aV#latestnews Arvind Kejriwal to highlight polluted Ganga, sewer &amp; plight of weavers in its ... - Economic Times... http://t.co/XLxFcLECWC
p180
aV#latestnews Arvind Kejriwal to highlight polluted Ganga, sewer &amp; plight of weavers in its ... - Economic Times... http://t.co/AKA8ZVP0oV
p181
aV#latestnews Arvind Kejriwal to highlight polluted Ganga, sewer &amp; plight of weavers in its ... - Economic Times... http://t.co/FR7xERybKb
p182
aV#latestnews Arvind Kejriwal to highlight polluted Ganga, sewer &amp; plight of weavers in its ... - Economic Times... http://t.co/dITOpakC0T
p183
aV#latestnews Arvind Kejriwal to highlight polluted Ganga, sewer &amp; plight of weavers in its ... - Economic Times... http://t.co/zki0I0H0PS
p184
aV#latestnews Arvind Kejriwal to highlight polluted Ganga, sewer &amp; plight of weavers in its ... - Economic Times... http://t.co/yHQI1kpOkK
p185
aV#latestnews Arvind Kejriwal to highlight polluted Ganga, sewer &amp; plight of weavers in its ... - Economic Times... http://t.co/oDQgHZ4ZrY
p186
aV#latestnews Arvind Kejriwal to highlight polluted Ganga, sewer &amp; plight of weavers in its ... - Economic Times... http://t.co/jdewZAjWmx
p187
aV#latestnews Arvind Kejriwal to highlight polluted Ganga, sewer &amp; plight of weavers in its ... - Economic Times... http://t.co/InSNRkCFJ9
p188
aV#latestnews Arvind Kejriwal to highlight polluted Ganga, sewer &amp; plight of weavers in its ... - Economic Times... http://t.co/fEbPsy2LgK
p189
aV#latestnews Arvind Kejriwal to highlight polluted Ganga, sewer &amp; plight of weavers in its ... - Economic Times... http://t.co/YMNOJojbCP
p190
aV#latestnews Arvind Kejriwal to highlight polluted Ganga, sewer &amp; plight of weavers in its ... - Economic Times... http://t.co/KoifUdRecV
p191
aV#latestnews Arvind Kejriwal to highlight polluted Ganga, sewer &amp; plight of weavers in its ... - Economic Times... http://t.co/wZTrSZSngg
p192
aV#latestnews Arvind Kejriwal to highlight polluted Ganga, sewer &amp; plight of weavers in its ... - Economic Times... http://t.co/lfLzBNGFTk
p193
aV#latestnews Arvind Kejriwal to highlight polluted Ganga, sewer &amp; plight of weavers in its ... - Economic Times... http://t.co/xwZ0ITkM5F
p194
aV#latestnews Arvind Kejriwal to highlight polluted Ganga, sewer &amp; plight of weavers in its ... - Economic Times... http://t.co/KTLpijr4Yz
p195
aV#latestnews Arvind Kejriwal to highlight polluted Ganga, sewer &amp; plight of weavers in its ... - Economic Times... http://t.co/RyKU2BHXjT
p196
aV#latestnews Arvind Kejriwal to highlight polluted Ganga, sewer &amp; plight of weavers in its ... - Economic Times... http://t.co/bOaJUy4XMq
p197
aV#latestnews Arvind Kejriwal to highlight polluted Ganga, sewer &amp; plight of weavers in its ... - Economic Times... http://t.co/Ni6SZua3tu
p198
aV#latestnews Arvind Kejriwal to highlight polluted Ganga, sewer &amp; plight of weavers in its ... - Economic Times... http://t.co/krAdDY1dYg
p199
aV#latestnews Arvind Kejriwal to highlight polluted Ganga, sewer &amp; plight of weavers in its ... - Economic Times... http://t.co/p4v98fmIAB
p200
aV#latestnews Arvind Kejriwal to highlight polluted Ganga, sewer &amp; plight of weavers in its ... - Economic Times... http://t.co/rajl36a84V
p201
aV#latestnews Arvind Kejriwal to highlight polluted Ganga, sewer &amp; plight of weavers in its ... - Economic Times... http://t.co/EWw7wUy5ZX
p202
asI4
(lp203
VRT @Joydas: The people who always outrage when there is hike in Price of Gas - I assume they are very busy and so forgot to thank Arvind Ke\u2026
p204
aVwhat is the update on election petition filed against arvind kejriwal ?
p205
aVRT @satishjain18: EC accepted Arvind Kejriwal request and EC asks oil ministry to defer doubling of price of the fuel till general election\u2026
p206
aVArvind Kejriwal was right when he said that media is paid.. just that he named the wrong channels (and wrong... http://t.co/V4sewFsNbK
p207
aV\u201c@AAP_Global: Arvind Kejriwal - The Journey of a Common Man! https://t.co/DFqtc0oJMh \u2026 @JoinAAP #AAPWaveInHaryana
p208
aV@AamAadmiParty @JoinAAP its a way to go arvind kejriwal.. we are with you..good going.. kutte bhonkte hain, sher apna kaam karte hain.
p209
aVRT @JudgeArnab: Does Arvind Kejriwal know that the cloth used in making AAP caps comes from Reliance Textiles located in Naroda, Gujarat? #\u2026
p210
aVRT @sarkar_swati @Vamsee9002 @timesnow Varanasi student bodies say AAP chief Arvind Kejriwal is misguiding the youth of Varanasi
p211
aVRT @timesnow: Varanasi student bodies say AAP chief Arvind Kejriwal is misguiding the youth of Varanasi #Mandate2014
p212
aVRT @JudgeArnab: Does Arvind Kejriwal know that the cloth used in making AAP caps comes from Reliance Textiles located in Naroda, Gujarat? #\u2026
p213
aVRT @Joydas: The people who always outrage when there is hike in Price of Gas - I assume they are very busy and so forgot to thank Arvind Ke\u2026
p214
aVRT @Joydas: The people who always outrage when there is hike in Price of Gas - I assume they are very busy and so forgot to thank Arvind Ke\u2026
p215
aV@chetan_bhagat @ArvindKejriwal If Arvind Kejriwal will change...whatever man BJP, Modi or Indian ppl dont give a $hit about you
p216
aV+++++RT .@FirstNamo: \u000aOne more reason why Narendra Modi does not talk about Kejriwal at all... \u000ahttp://t.co/oCFqbrFLVc
p217
aVETP Arvind Kejriwal to declare war on Narendra Modi in Varanasi with 8-point strike: Aiming a big attack on Mo... http://t.co/bquoylp960
p218
aVRT @JudgeArnab: If Arvind Kejriwal wants retweets, he should add "Modi" in everything he tweets. #GharGharModi http://t.co/QSTAbcdnOS
p219
aVRT @MKJHA_: @ArvindKejriwal tops the list of most popular chief minister of the country with 21 per cent votes. http://t.co/SOPpvf0X1l\u000a#Kej\u2026
p220
aVRT @Joydas: The people who always outrage when there is hike in Price of Gas - I assume they are very busy and so forgot to thank Arvind Ke\u2026
p221
aVWho is being searched for the most? #Narendra #Modi #Rahul #Gandhi #Arvind #Kejriwal #NaMo #AAP #Congress #BJP #India http://t.co/MuS4pxYFc1
p222
aVRT @JudgeArnab: Does Arvind Kejriwal know that the cloth used in making AAP caps comes from Reliance Textiles located in Naroda, Gujarat? #\u2026
p223
aVRT @Joydas: The people who always outrage when there is hike in Price of Gas - I assume they are very busy and so forgot to thank Arvind Ke\u2026
p224
aVRT @AAPUttarPradesh: Arvind Kejriwal's Varanasi Rally at Beniyabag Maidan tomorrow, 25th March at 3 PM. \u000a\u000a\u0907\u0938 \u0926\u0947\u0936 \u0915\u0940 \u0924\u0915\u0926\u0940\u0930 \u0915\u093e \u092b\u0948\u0938\u0932\u093e... http:\u2026
p225
aVRT @IndiaForAAP: Setback to Ambani, BJP and Cong, Election Commission hold it for 2 months. Kuch bhi Kaho Arvind Kejriwal &amp; AAP is... http:\u2026
p226
aVRT @JudgeArnab: Does Arvind Kejriwal know that the cloth used in making AAP caps comes from Reliance Textiles located in Naroda, Gujarat? #\u2026
p227
aVRT @anshulkatare1: If AAP was not formed, Arvind Kejriwal would have been the guest for this show today.. But he's doing sumthing much bigg\u2026
p228
aVRT @smarket: Arvind Kejriwal is a very -ve person. His only job is to find fault with others ~ Voter in Gujarat
p229
aVWho is being searched for the most? #Narendra #Modi #Rahul #Gandhi #Arvind #Kejriwal http://t.co/hvaXnJefkR
p230
aVRT @2kunalc: @cmdawar Arvind Kejriwal can RT "Murderer", he can tweet Joke on Advani but we can't make a Joke on @anjanaomkashyap #PaidMedi\u2026
p231
aV#10MostSearched Which Chief #Minister is #India searching for the most?  #Narendra #Modi  #Arvind #Kejriwal #akhilesh http://t.co/2eEeUVYl0v
p232
aVRT @Ekhlaz: Surprise support for @ArvindKejriwal  from Nitish Kumar @ndtv \u000ahttp://t.co/XcpF0yaW13
p233
aVRT @Joydas: The people who always outrage when there is hike in Price of Gas - I assume they are very busy and so forgot to thank Arvind Ke\u2026
p234
aVRT @Joydas: The people who always outrage when there is hike in Price of Gas - I assume they are very busy and so forgot to thank Arvind Ke\u2026
p235
aVRT @UdaasPriest: "I am targeted"\u000a"Everyone is against us"\u000a"We have been attacked so many times"\u000a"Why am I not dead?" - James Priya.\u000a\u000aAnd Ar\u2026
p236
aVRT @smarket: Arvind Kejriwal is a very -ve person. His only job is to find fault with others ~ Voter in Gujarat
p237
aVRT @firstpostin: Delhi HC asks city's power distribution companies to comply with CAG audit that had been ordered by Arvind Kejriwal govt |\u2026
p238
aVRT @JudgeArnab: Does Arvind Kejriwal know that the cloth used in making AAP caps comes from Reliance Textiles located in Naroda, Gujarat? #\u2026
p239
aVRT @UdaasPriest: "I am targeted"\u000a"Everyone is against us"\u000a"We have been attacked so many times"\u000a"Why am I not dead?" - James Priya.\u000a\u000aAnd Ar\u2026
p240
aVRT @Joydas: The people who always outrage when there is hike in Price of Gas - I assume they are very busy and so forgot to thank Arvind Ke\u2026
p241
aVRT @Sandeep2009: We aren't scared of threats, my life for the country: Arvind Kejriwal \u000a#KejriwalinKashi http://t.co/wyR5OmOuul
p242
aVRT @SouleFacts: Is Arvind Kejriwal is paid to do so? MT @bhatesc: A simple analysis of Arvind Kejriwal's tweets since 1 December 2013 http:\u2026
p243
aVRT @satishjain18: EC accepted Arvind Kejriwal request and EC asks oil ministry to defer doubling of price of the fuel till general election\u2026
p244
aVRT @timesnow: Varanasi student bodies say AAP chief Arvind Kejriwal is misguiding the youth of Varanasi #Mandate2014
p245
aVRT @timesnow: Varanasi student bodies say AAP chief Arvind Kejriwal is misguiding the youth of Varanasi #Mandate2014
p246
aVOne fighting to be 49 days PM, other for stable progressive nation for dev' n safety from job-eater, corrupt, pakchin http://t.co/XK0lWDYQIS
p247
aVRT @Joydas: The people who always outrage when there is hike in Price of Gas - I assume they are very busy and so forgot to thank Arvind Ke\u2026
p248
aVRT @timesnow: Varanasi student bodies say AAP chief Arvind Kejriwal is misguiding the youth of Varanasi #Mandate2014
p249
aV@AamAadmiParty @dna Varanasi set for False promises and few stupid question as Arvind Kejriwal comes calling....
p250
aVRT @mohanrakesh1909: Watch "Anna Hazare hits out at Arvind Kejriwal" on YouTube - https://t.co/WlzX9lgpHe # AAP
p251
aVonly one news paper declared news "March 24 Elections roundup: Arvind Kejriwal thanks EC for deferring gas price hike"
p252
aVEC takes note of Arvind Kejriwal\u2019s complaint, seeks details from government on proposed gas price hike | The Indian Express: http://indian
p253
asI5
(lp254
VRT @satyabhashnam: CC @JayHind @VishalDadlani "@anilkapurk Dear voters of Varanasi this is what Arvind Kejriwal did in Delhi for 49 days ht\u2026
p255
aVDelight to watch Arvind Kejriwal sir's interviews &amp; speeches AAP Q&amp;A (Part 1) http://t.co/y2GaRvMAk6 via @youtube
p256
aVINQUILAAB | JASSI JASRAJ | AAM AADMI PARTY | ARVIND KEJRIWAL | 2014   HINDI MUST Watch @AamAadmiParty @AapYogendra  http://t.co/1HajzRmYNM
p257
aVRT @mksundaram: Anti-Indian, anti-social elements cannot afford Arvind Kejriwal to fail. Everyone is working hard to stop Modi.#ThisTime4Mo\u2026
p258
aVRT @rishibagree: Arvind Kejriwal and Digvijay to fight against @narendramodi from Varanasi ! \u000a\u000aLol, Sounds like \u000a'Chameleon and Dog challen\u2026
p259
aVRT @Vidyut: AAPli Mumbai RT @VishalDadlani: REAL pictures of Arvind in Bom! Be very afraid, big parties! http://t.co/Ql2FG12aUt
p260
aV@PTI_News  arvind kejriwal is the most dishonest,corrupt and incapable leader of our country .
p261
aVRT @satyabhashnam: CC @JayHind @VishalDadlani "@anilkapurk Dear voters of Varanasi this is what Arvind Kejriwal did in Delhi for 49 days ht\u2026
p262
aVRT @satyabhashnam: CC @JayHind @VishalDadlani "@anilkapurk Dear voters of Varanasi this is what Arvind Kejriwal did in Delhi for 49 days ht\u2026
p263
aVRT @AapYogendra: Pictures from around Gurgaon constituency where Arvind Kejriwal visited today -  thank you all for your support https://t.\u2026
p264
aVRT @satyabhashnam: CC @JayHind @VishalDadlani "@anilkapurk Dear voters of Varanasi this is what Arvind Kejriwal did in Delhi for 49 days ht\u2026
p265
aVRT @AapYogendra: Pictures from around Gurgaon constituency where Arvind Kejriwal visited today -  thank you all for your support https://t.\u2026
p266
aVMy answer to What women of India think about AAP and Arvind Kejriwal? http://t.co/BNhK3xGYKd
p267
aVCC @JayHind @VishalDadlani "@anilkapurk Dear voters of Varanasi this is what Arvind Kejriwal did in Delhi for 49 days http://t.co/8BxQJofLgo
p268
aVRT @AapYogendra: Pictures from around Gurgaon constituency where Arvind Kejriwal visited today -  thank you all for your support https://t.\u2026
p269
aVI liked a @YouTube video http://t.co/9pk46ZhjMr Arvind Kejriwal arrives in Mumbai, takes auto to railway station
p270
aVI liked a @YouTube video http://t.co/X4IgIkwfOR Arvind Kejriwal's speech displays the vocabulary that brought AAP to power
p271
aVRT @anilkapurk: @KiranKS ROFL..Anna Hazare has hanged Arvind Kejriwal by his words..  http://t.co/2SkkC1nitV http://t.co/2T6eahnSxk"
p272
aVArvind Kejriwal's claim about Gujarat debunked (Image): http://t.co/cLxz97zIIP
p273
aVRT @Hitarth1987: Arvind Kejriwal's tweets since 1st December 2013 - see yourself : http://t.co/AtZU3H6A97 #AmitShahLive #AAPWaveInHaryana #\u2026
p274
aVI liked a @YouTube video http://t.co/agcsFHg6mB ARVIND KEJRIWAL: LATEST INTERVIEW Exposing Modi &amp; Paid Media
p275
aVRT @aartic02: Kodak Moment with Arvind Kejriwal ! \u000aWat a special feeling AK recognized me instantly n greeted with a broad smile ;) http://\u2026
p276
aVAllow us to make mistakes, allow us to learn : Arvind Kejriwal http://t.co/9Z6NiNV1rL
p277
aVRT @minesh_jsn: @Ajaykumar00009 have u answer of this ....http://t.co/EdmAkYdwYF
p278
aVRT @arunshourie8: arvind kejriwal has 9 criminal cases against him &amp; AAM AADMI party calling other criminals http://t.co/zCzwH9sVFQ
p279
aVRT @AAPTube: #AAP Allow us to make mistakes, allow us to learn : Arvind Kejriwal http://t.co/2OhrhNzOgL
p280
aV#AAP Allow us to make mistakes, allow us to learn : Arvind Kejriwal http://t.co/2OhrhNzOgL
p281
aVRT @The_Sleigher: Arvind Kejriwal is a IITian. There are 10000 every year.\u000aSunny Leone is a Penthouse Pet Of the Year. There are only 45.\u000a#\u2026
p282
aVRT @bhatesc: A simple analysis of Arvind Kejriwal's tweets since 1 December 2013. Why should I not call AAP as B-team of Cong? http://t.co/\u2026
p283
aVArvind Kejriwal fires fresh salvo at media: The AAP convener further asked media persons to report the "realit... http://t.co/6WrPTbMwyz
p284
aVAnother attempt to sabotage "freedom of press" by #AAP http://t.co/jtQ40rsjIp
p285
aV\u201c@IndiaToday: AAP workers manhandle journalist, Kejriwal apologises for it\u000ahttp://t.co/F6uLxLdnBx\u201d yeah revolutionary party.
p286
aV@VishalDadlani AAP workers manhandle journalist http://t.co/jXJz9hzBLu
p287
aVRT @bhatesc: A simple analysis of Arvind Kejriwal's tweets since 1 December 2013. Why should I not call AAP as B-team of Cong? http://t.co/\u2026
p288
aVThrow the BJP and CONG over\u000aVote for AAP candidates! http://t.co/hQhynFIZZi
p289
aVRT @DilliDurAst: Has quitting helped Kejriwal? An NDTV opinion poll in Delhi\u000ahttp://t.co/r09GqcuNOf
p290
aVRT @SouleFacts: Is Arvind Kejriwal is paid to do so? MT @bhatesc: A simple analysis of Arvind Kejriwal's tweets since 1 December 2013 http:\u2026
p291
aVRT @bhatesc: A simple analysis of Arvind Kejriwal's tweets since 1 December 2013. Why should I not call AAP as B-team of Cong? http://t.co/\u2026
p292
aVRT @jhunjhunwala: This West Indian scoring rate is slower than Arvind Kejriwal's Wagon-R at top speed.
p293
aVRT @SouleFacts: Is Arvind Kejriwal is paid to do so? MT @bhatesc: A simple analysis of Arvind Kejriwal's tweets since 1 December 2013 http:\u2026
p294
aVRT @daddy_san: It's a shame how Pramod Muthalik was treated by the BJP. This would've never happened with Arvind Kejriwal who would've defe\u2026
p295
aVRT @AAPkaBinny: Reason:#Insult to national flag \u201c@EconomicTimes: AAP workers manhandle journalist, #ArvindKejriwal apologises for it http:/\u2026
p296
aVRT @arunshourie8: ARVIND KEJRIWAL have  pending criminal cases against him &amp; AAPTARDS trending #SharmKaroBJP .y???
p297
aVWatch Arvind Kejriwal lie being exposed http://t.co/zpECkntVXI
p298
as.