(dp0
I0
(lp1
V@IndiaToday: Ugandan women were detained, threatened,says lawyer #AAP denies http://t.co/iWygHkDNsI\u201d how they got @hsalve as a lawyer?
p2
aV#AAP Arvind Kejriwal threatens agitation if police officials not punished - Economic Times http://t.co/ykkfQcparh @AAPInNews
p3
aV#AAP Kejriwal threatens to protest outside Home Minister's office if three Delhi ... - NDTV http://t.co/0jiXWeh7V4 @AAPInNews
p4
aVLate realization? Btter late thn nver| 'Disillusioned with Aam Aadmi Party' says @AnupamPKher - India Today http://t.co/JQUZ8W1yGj  #QuitAAP
p5
aVDelhi traffic police has decided to replace all "No U Turn' signs with 'No Arvind Kejriwal' signs. #AAPImploding #ArvindKejriwal
p6
aVRT @pankajkumarpra: Delhi CM Arvind Kejriwal to sit on dharna if cops not suspended - http://t.co/Hf0eXnRWk3 Imagine if this clown becomes \u2026
p7
aVKejriwal threatens agitation if cops not punished: Kejriwal met the home minister and threatened to laun... http://t.co/4YTFbLrmxF #News
p8
aVKejriwal threatens agitation if cops not punished: Kejriwal met the home minister and threatened to laun... http://t.co/V9p6P6EadD #News
p9
aVKejriwal threatens agitation if cops not punished: Kejriwal met the home minister and threatened to laun... http://t.co/oPcMKCOydJ #News
p10
aVRT @pankajkumarpra: Delhi CM Arvind Kejriwal to sit on dharna if cops not suspended - http://t.co/Hf0eXnRWk3 Imagine if this clown becomes \u2026
p11
aVRT @ndtv: Delhi Police should be brought under the control of Delhi Government, Arvind Kejriwal tells Home Minister Sushil Shinde: PTI
p12
aVRT @Spread_Revolt: Arvind Kejriwal's Sketch by a fan from Punjab !! #CongBJPQuitIndia http://t.co/CkL05NqSQI
p13
aVRT @pankajkumarpra: Delhi CM Arvind Kejriwal to sit on dharna if cops not suspended - http://t.co/Hf0eXnRWk3 Imagine if this clown becomes \u2026
p14
aVRT @dibang: Bring #DelhiPolice under Delhi govt, #ArvindKejriwal urges home ministry\u000ahttp://t.co/KpZZA1mumR
p15
aVRT @Spread_Revolt: Arvind Kejriwal's Sketch by a fan from Punjab !! #CongBJPQuitIndia http://t.co/CkL05NqSQI
p16
aVRT @BolshoyBooze: Arvind Kejriwal at the end of day.\u000a#Binny #Bhushan #Sisodia #Vishwas #Somnath #Bidla http://t.co/9bKT33bRJs
p17
aVRT @ExposeAAP: #QuitAAP\u000a\u000aAam Aadmi Party drunk goons are misbehaving with girls\u000apeople are fed up of Arvind Kejriwal's "Parivartan"\u000a\u000ahttp:/\u2026
p18
aVRT @pankajkumarpra: Delhi CM Arvind Kejriwal to sit on dharna if cops not suspended - http://t.co/Hf0eXnRWk3 Imagine if this clown becomes \u2026
p19
aVThis guy is a big JOKE at this point.... Delhi CM Arvind Kejriwal to sit on dharna if cops not suspended.  http://t.co/GXPwtuCXqj
p20
aVRT @ExposeAAP: #QuitAAP\u000aIf we find any case against any member of our party, we will sack him immediately - Arvind Kejriwal\u000a#LIAR http://t.\u2026
p21
aVDelhi CM Arvind Kejriwal to sit on dharna if cops not suspended - http://t.co/Hf0eXnRWk3 Imagine if this clown becomes PM #QuitAAP
p22
aVRT @Spread_Revolt: Arvind Kejriwal's Sketch by a fan from Punjab !! #CongBJPQuitIndia http://t.co/CkL05NqSQI
p23
aVRT @ndtv: Delhi Police Commissioner BS Bassi also arrives at North Block to attend meeting of Home Minister Shinde with Chief Minister Arvi\u2026
p24
aVRT @DeMOCKERYcy: "Delhi police rejects Arvind Kejriwal`s demand to suspend cops - Zee News" http://t.co/ssHcNVJocO
p25
aVDelhi CM Arvind Kejriwal to sit on dharna if cops not suspended http://t.co/Nq9anPOUak
p26
aVKejriwal shd mke sunny leone his party mascot as lke arvind claims he has nthng to hide,sunny too hs nthng to hide !
p27
aVRT @semubhatt: WTH. Nvr ending nautanki! "@timesofindia: Delhi CM Arvind Kejriwal to sit on dharna if cops not suspended http://t.co/6IF51e\u2026
p28
aVUgandan women were detained, threatened, says lawyer; AAP denies http://t.co/sCqKzUw6EC
p29
aVRT @_shahanuj_: If Arvind Kejriwal doesn't wears VIP under garments because he is honest , I am sure he might be wearing Ranjit SMART under\u2026
p30
aVRT @thekiranbedi: Disillusioned with AAP, says Anupam Kher - India Today http://t.co/z7ieG5VvBQ via @indiatoday
p31
aVAAP does not rule out Arvind Kejriwal contesting LS polls: Aam Aadmi Party today did not rule out Arvind Kejriwal... http://t.co/iIeoOHLC9W
p32
aVAAP does not rule out Arvind Kejriwal contesting LS polls: Aam Aadmi Party today did not rule out Arvind Kejriwal... http://t.co/QKFUSIIsvS
p33
aVDelhi CM Arvind Kejriwal to sit on dharna if cops not suspended: NEW DELHI: Delhiites may witness an un... http://t.co/NWkAOYOKrY #Delhi
p34
aVRT @ndtv: Delhi Police Commissioner BS Bassi also arrives at North Block to attend meeting of Home Minister Shinde with Chief Minister Arvi\u2026
p35
aVKnow Your Arvind Kejriwal : Foreign Funded NGOs Exposed By Rajiv Dixit http://t.co/evcD24JiDM
p36
aVWhy are we not hearing anything about what Narendra Modi has already done in MSM ?? Only Kejriwal in the news..  http://t.co/tZtnFV5kbq
p37
aVSuspend cops or we protest at Home Minister's office, warns Arvind Kejriwal http://t.co/Z6SbYrILDm http://t.co/tXVfAfpnek
p38
aVRT @dna: I will look into @ArvindKejriwal's demand: Sushilkumar Shinde- http://t.co/PPRY4szCpt
p39
aVRT @DeMOCKERYcy: "Delhi police rejects Arvind Kejriwal`s demand to suspend cops - Zee News" http://t.co/ssHcNVJocO
p40
aVRT @News4AAP: #AAP Omar Abdullah's advice to Arvind Kejriwal: Difference between activist and CM - Daily News ... http://t.co/nBic10SkED @A\u2026
p41
aVRight action through wrong methods! This tantamount to encouraging anarchy! http://t.co/a2SGTlN2AT
p42
aVRT @thekiranbedi: Disillusioned with AAP, says Anupam Kher - India Today http://t.co/z7ieG5VvBQ via @indiatoday
p43
aV#AAP Omar Abdullah's advice to Arvind Kejriwal: Difference between activist and CM - Daily News ... http://t.co/nBic10SkED @AAPInNews
p44
aV#AAP Bring Delhi police under Delhi govt, Arvind Kejriwal urges home ministry - Economic Times http://t.co/Lyw7pr6hBr @AAPInNews
p45
aVRT @DeMOCKERYcy: "Delhi police rejects Arvind Kejriwal`s demand to suspend cops - Zee News" http://t.co/ssHcNVJocO
p46
aV"Delhi police rejects Arvind Kejriwal`s demand to suspend cops - Zee News" http://t.co/ssHcNVJocO
p47
aVRT @shagil_: Mr U turn, u r not an activist anymore u r a elected CM &gt; Arvind Kejriwal to sit on dharna if cops not suspended #QuitAAP
p48
aVDelhi CM should henceforth be known as: Sri Sri Arvind 'Harishchandra' Kejriwal [GGTM] \u000a\u000a*GGTM = God's Gift To Mankind
p49
asI1
(lp50
VRT @anilmaggon: Dear Arvind Kejriwal http://t.co/kwkNsj8wa5 via @pagalguy ............ A must read for every #Honestarvind follower!
p51
aV:-D "@ashwinskumar: BREAKING: Arvind Kejriwal to organize "Run For Unity" for AAP members :P"
p52
aVRT @ashwinskumar: BREAKING: Arvind Kejriwal to organize "Run For Unity" for AAP members :P
p53
aV@shilpitewari @ArvindKejriwal Arvind Kejriwal himself sheds many layrs of hs attire of morality, honesty, etc &amp; finally gets undresd himself
p54
aVRT @animallover2803: Chief Minister Delhi: To stop cow slaughtry and strict punishent for cow butchering http://t.co/j8Qr4QnSEn via @Change\u2026
p55
aVRT @IBNLiveRealtime: Delhi CM Arvind Kejriwal "What s the job of Delhi police? How can they say that we are interfering in their work"?
p56
aVRT @IndiaToday: Kejriwal flays Delhi Police, wants officials suspended \u000ahttp://t.co/qoucV3vPjI
p57
aVRT @SandeepRatheeny: #QuitAAP before Arvind Kejriwal dissolves it &amp; you feel like rejected GF/BF
p58
aVRT @tajinderbagga: Corrupt like somnath bharti, traitor like Prashsnt bhushan,  Paltu like Arvind kejriwal, lier like Rakhi birla all are #\u2026
p59
aV@justicearnab Oh my god!!!! U r tweeting something against THE Arvind Kejriwal..! How can you do?
p60
aVAAP exposed must read http://t.co/nygDYxVobK #QuitAAP Modi #Knowthetruth #QuitAAP before Arvind Kejriwal dissolves it &amp; you feel like r...
p61
aVRT @shivendravats: Prashant and Arvind have not yet responded to my letter from 2012  http://t.co/VQ5EoeeAVe  http://t.co/8eG4lGmaSe
p62
aVRT @junejarajiv: #ArvindKejriwal has found his own "Arvind Kejriwal" in the form of #VinodBinny. \u000a\u000a#AAP
p63
aV#QuitAAP before Arvind Kejriwal dissolves it &amp; you feel like rejected GF/BF
p64
aVArvind Kejriwal may contest Lok Sabha poll; Kumar Vishwas to 'build house in ... http://t.co/vnUrjRTnTz
p65
aVRT @jvsk3: The administration skills &amp; leadership quality of Arvind Kejriwal in his 20 day's govt has rattled both Cong &amp; NModi BJP  #CongB\u2026
p66
aVRT @jvsk3: Arvind Kejriwal gover is so sharp that his decision taking ability quickly &amp;strongly has shown he is d only PM materiel #CongBJP\u2026
p67
aVRT @anubhavagarwal: Rotfl! @VegGujju: I think Arvind kejriwal should do this\u000a @tajinderbagga #QuitAAP http://t.co/r1qrqyPBph\u201d
p68
aVRotfl! @VegGujju: I think Arvind kejriwal should do this\u000a @tajinderbagga #QuitAAP http://t.co/r1qrqyPBph\u201d
p69
aVCongress scared of Modi. Modi scared of Kejriwal. What nonsense. Let everyone stop dreaming. Arvind Kejriwal is the next PM.
p70
aVRT @VegGujju: I think Arvind kejriwal should do this\u000a @tajinderbagga #QuitAAP http://t.co/Woh00ex52p
p71
aVRT @mrspooja74: My auto Driver says - 'mam aage signal se Arvind Kejriwal karoonge' !\u000a I asked him to clarify...\u000ahe said smiling- 'I mean U\u2026
p72
aVRT @ashwinskumar: BREAKING: Arvind Kejriwal to organize "Run For Unity" for AAP members :P
p73
aVRT @IndiaSpeaksPR: Arvind Kejriwal gives clean chit to Somnath Bharti. Claims he was trying to hide the rape victims name by saying it very\u2026
p74
aVRT @vaidehisachin: Believe me Arvind Kejriwal is not a person who will tame down or take back so easy....he will continue to be there in ba\u2026
p75
aVRT @IndiaSpeaksPR: The only thing that was successfully resolved by Arvind Kejriwal in the last two months was his loose motion #justsayin
p76
aVRT @MunnaHazare: If I remember correctly it was Arvind Kejriwal who had called for honest politicians to revolt in their party. Vinod Binny\u2026
p77
aVRT @TheUnRealTimes: The real reason why Arvind Kejriwal would not hold any more darbars - http://t.co/DxeQskTxBf
p78
aVRT @ndtv: Arvind Kejriwal: You see a crime, report it and want the cops to act, why is the police not acting? Updates here http://t.co/Vs6V\u2026
p79
aVRT @ndtv: If ministers are saying go and arrest the culprits, cops say he/she is interfering with their work: Arvind Kejriwal http://t.co/V\u2026
p80
aVRT @ndtv: Delhi police says ministers interfere in their work, but what is their work: Arvind Kejriwal. Updates here http://t.co/Vs6VcuKh1J
p81
aVRT @ANI_news: How can Delhi Police say state ministers interfering in their work? Police is just refusing to act against criminals-Arvind K\u2026
p82
aV@ibnlive @IBNLivePolitics Bjp &amp; Congress have to stop dreaming. Arvind Kejriwal of AAP is the next PM.
p83
aVChief Minister Delhi: To stop cow slaughtry and strict punishent for cow butchering http://t.co/j8Qr4QnSEn via @Change4India
p84
aVRT @IndiaSpeaksPR: The only thing that was successfully resolved by Arvind Kejriwal in the last two months was his loose motion #justsayin
p85
aV@ndtv Why are Bjp &amp; Congress worried about naming PM candidates? Arvind Kejriwal of AAP is the next PM. They have to stop dreaming.
p86
aVRT @klmmani: Arvind Kejriwal says 'security of people in Delhi has been left to God' #QuitAAP #AAPCongQuitIndia same AK tweeted http://t.co\u2026
p87
aVRT @Ina_kshk: Kiran Bedi to Ashutosh - ''Thank you very much for taking Arvind Kejriwal away from the movement.''
p88
aVRT @dryadusingh: @Aapyogendra contradicts @arvindkejriwal on #AAP MLAs not contesting LS election decision! Who is lying?  http://t.co/ipcL\u2026
p89
aV@Aapyogendra contradicts @arvindkejriwal on #AAP MLAs not contesting LS election decision! Who is lying?  http://t.co/ipcLA1kDvj
p90
aVRT @IndiaSpeaksPR: Calm down everyone, Arvind Kejriwal has just given a clean chit to Shashi Tharoor. So all is well.
p91
aVRT @vaidehisachin: Believe me Arvind Kejriwal is not a person who will tame down or take back so easy....he will continue to be there in ba\u2026
p92
aVRT @shaksingh: Security of arvind kejriwal is 10 times costlier #QuitAAP http://t.co/uVxfIDjs1t
p93
aVRT @VegGujju: I think Arvind kejriwal should do this\u000a @tajinderbagga #QuitAAP http://t.co/Woh00ex52p
p94
aVRT @fdi_r: Yes root cause of all problems of India since 66yrs is AAP &amp; Arvind Kejriwal but I want #CongBJPQuitIndia immediately.
p95
aVArvind Kejriwal may contest Lok Sabha poll; Kumar Vishwas to 'build house in ... http://t.co/QcxI9Kel6n
p96
aVRT @TheUnRealTimes: The Secret Life of Arvind Kejriwal: Free stuff is good. #YOLO baby. http://t.co/0K8W3ecE7Y via @waatho replug
p97
aVRT @IndiaSpeaksPR: Arvind Kejriwal gives clean chit to Somnath Bharti. Claims he was trying to hide the rape victims name by saying it very\u2026
p98
aVRT @VegGujju: I think Arvind kejriwal should do this\u000a @tajinderbagga #QuitAAP http://t.co/Woh00ex52p
p99
aVRT @VegGujju: I think Arvind kejriwal should do this\u000a @tajinderbagga #QuitAAP http://t.co/Woh00ex52p
p100
asI2
(lp101
VRT @Spread_Revolt: Leo Burnett\u2019s adman KV Sridhar joins Arvind Kejriwal\u2019s Aam Aadmi Party  #UnitedWithAAP  http://t.co/cwcP9oQaXJ
p102
aVRT @ratanmaitra: Leo Burnett\u2019s adman KV Sridhar joins Arvind Kejriwal\u2019s Aam Aadmi Party \u000a\u000ahttp://t.co/Ai6S7Mgh4I\u000a\u000aAdman #UnitedWithAAP :)
p103
aVRT @fakeriwal: Have you read this? My latest diary entry: "Free stuff is good. YOLO baby." http://t.co/Li1SMo35K3 via @TheUnRealTimes
p104
aVRT @ls2008: Arvind Kejriwal seems to be getting into the attitude of 'I am right even if I'm wrong'. #Somnath Bharti #quitaap #unitedwithAAP
p105
aV@RazorSharp_24 hypocrite Arvind Kejriwal says "Demonstrations is not the way to go about things" http://t.co/Rh4aYaNV4F
p106
aV@thekiranbedi hypocrite Arvind Kejriwal says "Demonstrations is not the way to go about things" http://t.co/Rh4aYaNV4F
p107
aV@chetan_bhagat  hypocrite Arvind Kejriwal says "Demonstrations is not the way to go about things" http://t.co/Rh4aYaNV4F
p108
aV@anilkohli54 hypocrite Arvind Kejriwal says "Demonstrations is not the way to go about things" http://t.co/Rh4aYaNV4F
p109
aV@mediacrooks hypocrite Arvind Kejriwal says "Demonstrations is not the way to go about things" http://t.co/Rh4aYaNV4F
p110
aV#UnitedWithAAP because Arvind says "demonstration are not the way to do things"! :D http://t.co/Rh4aYaNV4F
p111
aVIf you dont #QuitAAP after this! Arvind Kejriwal (FAKERIWAL) exposed by Rajat Sharma in front of ALL: http://t.co/r4xC0dpPKh via @youtube
p112
aVRT @ratanmaitra: Leo Burnett\u2019s adman KV Sridhar joins Arvind Kejriwal\u2019s Aam Aadmi Party \u000a\u000ahttp://t.co/Ai6S7Mgh4I\u000a\u000aAdman #UnitedWithAAP :)
p113
aVRT @joshinav: So Arvind Kejriwal is doing the same for Congress,what AO Hume did for britishers?Creating a safety valve to manage the "unre\u2026
p114
aV#QuitAAP The secret of life  is honesty &amp;fair dealing. If you can fake that like arvind kejriwal,  you've got it made. #timesnow #aap
p115
aV#QuitAAP Mumbling, Grumbling, Stumbling, Fumbling - Describes #aap &amp; Arvind Kejriwal 's govt in Delhi #India #Delhi
p116
aVRT @Spread_Revolt: Leo Burnett\u2019s adman KV Sridhar joins Arvind Kejriwal\u2019s Aam Aadmi Party  #UnitedWithAAP  http://t.co/cwcP9oQaXJ
p117
aVTrue Facts of AAP and Arvind Kejriwal..........\u000a1. Arvind Kejriwal was never transferred outside Delhi while in... http://t.co/5o4Y4H8DQH
p118
aVAll "U-turns" and "Dngerous Curve Ahead" signs in the country should be named in honor of Shreeman Arvind Kejriwal
p119
aVRT @neha_aks: #QuitAAP "@Vamsee9002: AAP leader Binny calls Arvind Kejriwal a \u2018liar\u2019, CM says MLA wants LS ticket | http://t.co/ToK16kkyr8\u201d
p120
aVRT @sudhanshuwasan: Amazing video - Hypocrisy, thy name is Arvind Kejriwal. Please share. http://t.co/AVENbkBYM1 @nanditathhakur @minhazmer\u2026
p121
aVRT @ratanmaitra: Leo Burnett\u2019s adman KV Sridhar joins Arvind Kejriwal\u2019s Aam Aadmi Party \u000a\u000ahttp://t.co/Ai6S7Mgh4I\u000a\u000aAdman #UnitedWithAAP :)
p122
aVRT @ratanmaitra: Leo Burnett\u2019s adman KV Sridhar joins Arvind Kejriwal\u2019s Aam Aadmi Party \u000a\u000ahttp://t.co/Ai6S7Mgh4I\u000a\u000aAdman #UnitedWithAAP :)
p123
aVRT @ls2008: Arvind Kejriwal seems to be getting into the attitude of 'I am right even if I'm wrong'. #Somnath Bharti #quitaap #unitedwithAAP
p124
aVRT @ratanmaitra: Leo Burnett\u2019s adman KV Sridhar joins Arvind Kejriwal\u2019s Aam Aadmi Party \u000a\u000ahttp://t.co/Ai6S7Mgh4I\u000a\u000aAdman #UnitedWithAAP :)
p125
aVRT @ratanmaitra: Leo Burnett\u2019s adman KV Sridhar joins Arvind Kejriwal\u2019s Aam Aadmi Party \u000a\u000ahttp://t.co/Ai6S7Mgh4I\u000a\u000aAdman #UnitedWithAAP :)
p126
aVRT @ls2008: Arvind Kejriwal seems to be getting into the attitude of 'I am right even if I'm wrong'. #Somnath Bharti #quitaap #unitedwithAAP
p127
aVLeo Burnett\u2019s adman KV Sridhar joins Arvind Kejriwal\u2019s Aam Aadmi Party \u000a\u000ahttp://t.co/Ai6S7Mgh4I\u000a\u000aAdman #UnitedWithAAP :)
p128
aVRT @India_Policy: Now tht Vinod Binny hs taken on Arvind Kejriwal, wait fr him tobe branded as most dishonest, greedy politician.BTW,he sta\u2026
p129
aVHC disposes plea for security to @ArvindKejriwal \u000ahttp://t.co/W5TtCNjAad
p130
aVRT @India_Policy: Now tht Vinod Binny hs taken on Arvind Kejriwal, wait fr him tobe branded as most dishonest, greedy politician.BTW,he sta\u2026
p131
aVRT @joshinav: So Arvind Kejriwal is doing the same for Congress,what AO Hume did for britishers?Creating a safety valve to manage the "unre\u2026
p132
aVJan Lokpal Bill draft will be ready in a day or two: Arvind Kejriwal: "I have spoken to the Chief Secret... http://t.co/ny0aL3v8a6 #News
p133
aVJan Lokpal Bill draft will be ready in a day or two: Arvind Kejriwal: "I have spoken to the Chief Secret... http://t.co/O3GDJ2lvB0 #News
p134
aVJan Lokpal Bill draft will be ready in a day or two: Arvind Kejriwal: "I have spoken to the Chief Secret... http://t.co/xK01Lzxrrr #News
p135
aVRT @ls2008: Arvind Kejriwal seems to be getting into the attitude of 'I am right even if I'm wrong'. #Somnath Bharti #quitaap #unitedwithAAP
p136
aVRT @sjsbains: Whos is most innocent politician among Mr. Arvind Kejriwal, Mr. Rahul Gandhi, Mr. Narender Modi and Mr. Parkash... http://t.c\u2026
p137
aVRT @ls2008: Arvind Kejriwal seems to be getting into the attitude of 'I am right even if I'm wrong'. #Somnath Bharti #quitaap #unitedwithAAP
p138
aVRT @ls2008: Arvind Kejriwal seems to be getting into the attitude of 'I am right even if I'm wrong'. #Somnath Bharti #quitaap #unitedwithAAP
p139
aVRT @HeadlinesToday: Arvind Kejriwal is soft on the Congress now.Why there's no case against the ministers in Sheila Dikshit govt: #AAP MLA \u2026
p140
aVLeo Burnett\u2019s adman KV Sridhar joins Arvind Kejriwal\u2019s Aam Aadmi Party  #UnitedWithAAP  http://t.co/cwcP9oQaXJ
p141
aVRT @ndtv: Arvind Kejriwal: Yesterday I called a meeting with all MLAs. If Vinod Kumar Binny had a problem, he should have brought it up.
p142
aVRT @irajdeep: BREAKING: #AAP Arvind Kejriwal Asks Judge To Submit Proof Against #AAPtards Somnath Bharti, Will Be Tried by *Internal* #LOKP\u2026
p143
aVAam Aadmi Party\u2019s Arvind Kejriwal today sworn-in as Delhi Chief Minister where he addressed\u2026 http://t.co/wWkbmdb5pl
p144
aVRT @neha_aks: #QuitAAP "@Vamsee9002: AAP leader Binny calls Arvind Kejriwal a \u2018liar\u2019, CM says MLA wants LS ticket | http://t.co/ToK16kkyr8\u201d
p145
aVRT @vamanan81: 'Aap vigalantism  reminiscent of WB, where  CPM cadres slowly destroyed institutions and eventually a State'.http://t.co/0ek\u2026
p146
aVRT @Yr_Conscience: AAP awakening:Political parties choose new ways to reorient themselves.\u000a#AAP\u000ahttp://t.co/iIauIH06DU
p147
aVRT @ExposeAAP: #QuitAAP because Arvind Kejriwal meets Tauqeer Raza and give lectures on secularism
p148
aVRT @neha_aks: #QuitAAP "@Vamsee9002: AAP leader Binny calls Arvind Kejriwal a \u2018liar\u2019, CM says MLA wants LS ticket | http://t.co/ToK16kkyr8\u201d
p149
aV#QuitAAP "@Vamsee9002: AAP leader Binny calls Arvind Kejriwal a \u2018liar\u2019, CM says MLA wants LS ticket | http://t.co/ToK16kkyr8\u201d
p150
aVRT @_j_n_s: Arvind Kejriwal : Made People pay the 9 Lacs he owed to GoI, inspite of crores of assets\u000a\u000aMallika (cont) http://t.co/zkTDNpRrOF
p151
asI3
(lp152
VRT @NorthAndrew: Arvind Kejriwal's Aam Aadmi party claims nearly 1m new members in 4 days http://t.co/4OPny1AVpz
p153
aVSachinKalbag: Disappointed with Delhi poll results Arvind Kejriwal is applying for an air hostess position at Emirates Airlines. http:/\u2026
p154
aVRT @DineshGhodke: Overheard- I learn 4m Arvind Kejriwal's bipolar nature; 2say1thing&amp;do another. I'll join Aam Aadmi Party n #Vote4Modi :) \u2026
p155
aVRT @madversity: I quite like these #YoKejriwalSoHonest jokes. I hope he has the sense of humour to laugh at them. http://t.co/UNAcJdac3k
p156
aVRT @NorthAndrew: Why everyone's attacking Delhi's new broom Arvind Kejriwal, my take: http://t.co/H107LtSmgg
p157
aVRT @NorthAndrew: Arvind Kejriwal's Aam Aadmi party claims nearly 1m new members in 4 days http://t.co/4OPny1AVpz
p158
aVRT @NorthAndrew: Why everyone's attacking Delhi's new broom Arvind Kejriwal, my take: http://t.co/H107LtSmgg
p159
aVRT @NorthAndrew: Arvind Kejriwal's Aam Aadmi party claims nearly 1m new members in 4 days http://t.co/4OPny1AVpz
p160
aVRT @NorthAndrew: Why everyone's attacking Delhi's new broom Arvind Kejriwal, my take: http://t.co/H107LtSmgg
p161
aVRT @NorthAndrew: Why everyone's attacking Delhi's new broom Arvind Kejriwal, my take: http://t.co/H107LtSmgg
p162
aVRT @NorthAndrew: Arvind Kejriwal's Aam Aadmi party claims nearly 1m new members in 4 days http://t.co/4OPny1AVpz
p163
aV#NowWatching "arvind kejriwal announces anti corruption helpline number part 1" on Rediff iShare http://t.co/cSbTF4BVyD
p164
aVRT @shilpitewari: Arvind kejriwal transfers jal board officers on basis of a sting and questions a court indictment of his minister! #Topib\u2026
p165
aVRT @rameshsrivats: Arvind Kejriwal waives 10-month power bill default and theft. \u000aSo, Modi wave is being combated with Kejriwal waive.
p166
aVRT @Bhunju: #timesnow Arnab Goswami will you call today Arvind Kejriwal with Somnath Bharti to discuss CBI court stricture against later.
p167
aVRT @bollywoodajjtak: One news Salman khan lunches with Modi and Other news Arvind Kejriwal hugs Kapil Sibal #lol #OK
p168
aVRT @bollywoodajjtak: One news Salman khan lunches with Modi and Other news Arvind Kejriwal hugs Kapil Sibal #lol #OK
p169
aVRT @shilpitewari: Arvind kejriwal transfers jal board officers on basis of a sting and questions a court indictment of his minister! #Topib\u2026
p170
aVRT @tajinderbagga: Sitting on Hunger Strike from 27 Jan against AAP-Cong Govt proposal of 90% Reservation in DU.Open letter to Kejriwal htt\u2026
p171
aVBBC News - Why the Arvind Kejriwal effect is growing http://t.co/m7xawYOrec
p172
aVdhume: Glad to see Arvind Kejriwal hasn't given up what SachinKalbag immortalized as his Emirates Air Hostess look. [Pic]
p173
aVSo it will be Chief Minister Arvind Kejriwal. Well deserved! A democratic coup.
p174
aVANI_news: Arvind Kejriwal en-route to Lt Gov's residence to stake claim for forming govt in Delhi
p175
aVANI_news: People congratulate Arvind Kejriwal as he makes his way to Lt. Governor Najeeb Jung's residence
p176
aVGuru Shishya Parampara ANI_news: No comment on Arvind Kejriwal, don't want to say anything on this :Anna Hazare
p177
aVRT @ndtv: 2014 polls a fight between AAP and BJP, Congress not in picture: Arvind Kejriwal http://t.co/3axP3KYbSU
p178
aV#facepalm Although other parties are just as bad RT @Retributions: This guy is basically economically illiterate. http://t.co/Svy2HsjQb9
p179
aVRT @ndtv: 2014 polls a fight between AAP and BJP, Congress not in picture: Arvind Kejriwal http://t.co/3axP3KYbSU
p180
aVRT @tajinderbagga: Open Letter to Arvind Kejriwal against 90% Reservation in DU http://t.co/zJjn9lRaA9 #ScribdDocs
p181
aV@KapilSibal Prediction:- after 5 years, Arvind Kejriwal, caught taking 500 crores bribe&gt;&gt; clean chit by CBI&gt;&gt;Becomes loyal to Priyanka
p182
aVANI_news: Arvind Kejriwal,Delhi CM designate: All Ministers will travel by metro to take oath
p183
aVWhy the Arvind #Kejriwal effect is growing http://t.co/5blhAYFgvK #India
p184
aVRT @ashokdhamija: Once Arvind Kejriwal has given certificate to Somnath Bharti, he shall be deemed to be honest, notwithstanding court's ve\u2026
p185
aVVery dangerous. ANI_news: Chaos at Kaushambi metro station as AAP supporters crowd around Arvind Kejriwal
p186
aVRT @bollywoodajjtak: One news Salman khan lunches with Modi and Other news Arvind Kejriwal hugs Kapil Sibal #lol #OK
p187
aVANI_news: Revenue, PWD, and urban development will come under Manish Sisodia: Arvind Kejriwal
p188
aVRT @ratanmaitra: Ex-CAG Vinod Rai picks up Arvind Kejriwal baton says, not just power discoms, all PPP projects must be audited\u000ahttp://t.co\u2026
p189
aVRT @irajdeep: India, Arvind Kejriwal &amp; #AAPtards Favorite Expression, *Trust Me*. It Means *I've NO !dea Whatsoever I'm Talking About* #YoK\u2026
p190
aVRT @REINSTALLINDIA: In Narendra Modi's Guajrat "Janta Durbar" is also called "Swagat" .. \u000a\u000aIn Arvind Kejriwal's Delhi "Janta Durbar" is a h\u2026
p191
aVRT @ratanmaitra: Ex-CAG Vinod Rai picks up Arvind Kejriwal baton says, not just power discoms, all PPP projects must be audited\u000ahttp://t.co\u2026
p192
aVRT @Vande_Mataram: Delhi BJP President Vijay Goel: This shameless defence of Somnath Bharti by Arvind Kejriwal is shocking.\u000a\u000aActually, its \u2026
p193
aV2014 Lok Sabha polls a fight between AAP &amp; BJP, congress not in the race: Arvind Kejriwal\u000ahttp://t.co/zKJLPcefhi
p194
aVFDI in retail would add to widespread unemployment: Arvind Kejriwal: Arvind Kejriwal today said small store ow... http://t.co/dUXPlxB8fq
p195
aVRT @BharatheshBhara: Arvind Kejriwal concept of politics "we investigate,we decide,we conclude" Somnath bharti is innocent. Media meherban,\u2026
p196
aVRT @Roflindian: Had Neil Nitin Mukesh joined BJP and won in Delhi, Arvind Kejriwal wouldn't have been CM today.
p197
aVRT @shilpitewari: Arvind kejriwal transfers jal board officers on basis of a sting and questions a court indictment of his minister! #Topib\u2026
p198
aVRT @arav_m: @ArvindKejriwal where r AAP policy analyses 2 prove FDI retail leds 2 unemployment. Hightime AAP releases policy docs http://t.\u2026
p199
aVRT @ddbhaiya: Arvind Kejriwal escaped when asked about Pakistan .... WHY??? http://t.co/6UArjPbs10
p200
aVANI_news: Arvind Kejriwal : It was so imp to attend office today. We had planned the water announcement. God, bahut galat time par bima\u2026
p201
aVANI_news: Arvind Kejriwal : Running 102 fever since yesterday. Severe loose motions. Sad that i won't be able to attend office today.
p202
asI4
(lp203
VRT @ratanmaitra: No one will be forced to install "faulty" water meter: Arvind Kejriwal \u000ahttp://t.co/sL0HMBG4Pc\u000acan get any authorized mete\u2026
p204
aVRT @aartic02: Arvind Kejriwal pulls the plug of FDI in retail in Delhi \u000a#AAPGovtInDelhi \u000ahttp://t.co/qCd4IURGfs http://t.co/pK4oapk4Mp
p205
aVRT @mediacrooks: Hahaha.. A letter to @ArvindKejriwal .. "Stop behaving like an "Enthu Cutlet" (Chennai style).." .. Hilarious too.. http:/\u2026
p206
aVRT @RealRediffCom: Rediff Live! Coming out openly against the Arvind Kejriwal-led party, former cop Kiran Bedi has said that a vo... http:/\u2026
p207
aVRT @VinitaDeshmukh: I'm glad Arvind Kejriwal has called off janta darbars but for Mehta to say AAP is naive is an insult to @ArvindKejriwal\u2026
p208
aVRediff Live! Coming out openly against the Arvind Kejriwal-led party, former cop Kiran Bedi has said that a vo... http://t.co/vsx5bahz4H
p209
aVRediff Live! Coming out openly against the Arvind Kejriwal-led party, former cop Kiran Bedi has said that a vo... http://t.co/dQfmeOpp0O
p210
aVRT @shantiomk: Now, Arvind Kejriwal to hold weekly, area-wise tours to hear grievances\u000a\u000ahttp://t.co/m4qX1gqelS"\u000aRT .@fdi_r .@AAPNewsReports\u2026
p211
aVRT @VinitaDeshmukh: I'm glad Arvind Kejriwal has called off janta darbars but for Mehta to say AAP is naive is an insult to @ArvindKejriwal\u2026
p212
aVRT @VinitaDeshmukh: I'm glad Arvind Kejriwal has called off janta darbars but for Mehta to say AAP is naive is an insult to @ArvindKejriwal\u2026
p213
aVRT @VinitaDeshmukh: I'm glad Arvind Kejriwal has called off janta darbars but for Mehta to say AAP is naive is an insult to @ArvindKejriwal\u2026
p214
aVRT @arvind_joshi: #ThePaltiMaruCM \u000aRT .@Aghorii2: @Swamy39 \u000aThe U-TURNS of Arvind Kejriwal - A COMPLETE COMPILATION. \u000ahttp://t.co/2woaNRvYVQ
p215
aVRT @Dorkstar: Sooryavansham is still on Set Max. Where is the change that Arvind Kejriwal promised all of us?
p216
aVI'm glad Arvind Kejriwal has called off janta darbars but for Mehta to say AAP is naive is an insult to @ArvindKejriwal 's years of activism
p217
aVEveryone should / must watc\u000aWatch "Arvind Kejriwal (FAKERIWAL) exposed by Rajat Sharma in front of ALL" on YouTube - https://t.co/pC7p3bgRoJ
p218
aVRT @TheUnRealTimes: #YoKejriwalSoHonest While reading Mahabharat when he came to part where Yudhishtir lies to Drona, Arvind Kejriwal cried\u2026
p219
aVVoting for AAP is like voting for Congress, says Kiran Bedi: Coming out openly against the Arvind Kejriwal-led... http://t.co/536x3qSbBs
p220
aVVoting for AAP is like voting for Congress, says Kiran Bedi: Coming out openly against the Arvind Kejriwal-led... http://t.co/yTEo6rhzlx
p221
aVRT @ianuragthakur: Knee-jerk reaction/events by AAP being done for publicity-- "No more 'Janta Darbar',says Delhi CM Arvind Kejriwal" http:\u2026
p222
aV#CopyingMODI\u000ahttp://t.co/lRqymWUPtL\u000aAfter darbar fiasco, Delhi CM to hold weekly, area-wise tours to hear grievances: http://t.co/YIOR518lLE
p223
aVET Would Arvind Kejriwal be able to checkmate Narendra Modi in 2014?: The new party\u2019s success in Delhi, its de... http://t.co/W1NXcQBClw
p224
aVCopying #Modi #SWAGAT RT @onestopnews Delhi CM Arvind Kejriwal to hold weekly, area-wise tours to hear grievances  http://t.co/fb07diL7jb
p225
aVRT @ddbhaiya: Kabir,an NGO run by Arvind Kejriwal and Manish Sisodiya have received $400,000 from Ford Foundation in last 3 years. http://t\u2026
p226
aVRT @mediacrooks: Hahaha.. A letter to @ArvindKejriwal .. "Stop behaving like an "Enthu Cutlet" (Chennai style).." .. Hilarious too.. http:/\u2026
p227
aVRT @sarkar_swati: For all his faults #YoKejriwalSoHonest can never be accused of being a man of his word! http://t.co/saQDgJK9DQ
p228
aVRT @DynastyCrooks: Hypocrisy - Thy Name Is Arvind Kejriwal  https://t.co/HkCde9JQKe ..This video should go VIRAL.......MUST WATCH.. #YoKejr\u2026
p229
aVForeign Direct Investment has been a controversial topic in recent years. The well known brands and chains have... http://t.co/Om0Rj7sMXl
p230
aVRT @livetweetfeed: Dehli traffic board have replaced all no-U-turn signals with Arvind Kejriwal photo with a cross #YoKejriwalSoHonest http\u2026
p231
aVRT @satyabhashnam: Scathing attack of BJP @drharshvardhan stops Mr U-turn Arvind Kejriwal's anarchist power waiver http://t.co/9VTnIJ1kVc #\u2026
p232
aVRT @shantiomk: Now, Arvind Kejriwal to hold weekly, area-wise tours to hear grievances\u000a\u000ahttp://t.co/m4qX1gqelS"\u000aRT .@fdi_r .@AAPNewsReports\u2026
p233
aVRT @madversity: I quite like these #YoKejriwalSoHonest jokes. I hope he has the sense of humour to laugh at them. http://t.co/UNAcJdac3k
p234
aV@ArvindKejriwal Good going Arvind Kejriwal . We are with you ..... Keep marching Forward.....
p235
aVArvind Kejriwal ends 'janta darbars', says he will go to the people instead http://t.co/JQgq6D4jx5 http://t.co/U7J5R9nDnV
p236
aVGlobalisation goes 'yuck' and 'yummy': New Delhi, Jan. 13: Arvind Kejriwal has reversed his predecessor's deci... http://t.co/aNRpgjOfQM
p237
aVRT @Aghorii2: @Swamy39 The U-TURNS of Arvind Kejriwal - A COMPLETE COMPILATION.  http://t.co/olDBkdJ5F2
p238
aVRT @BathManReturns: Breaking : Arvind Kejriwal's 4gb memory card in jail bacause the data got corrupted.
p239
aVRT @arvind_joshi: #ThePaltiMaruCM \u000aRT .@Aghorii2: @Swamy39 \u000aThe U-TURNS of Arvind Kejriwal - A COMPLETE COMPILATION. \u000ahttp://t.co/2woaNRvYVQ
p240
aV#ThePaltiMaruCM \u000aRT .@Aghorii2: @Swamy39 \u000aThe U-TURNS of Arvind Kejriwal - A COMPLETE COMPILATION. \u000ahttp://t.co/2woaNRvYVQ
p241
aVRT @mediacrooks: Hahaha.. A letter to @ArvindKejriwal .. "Stop behaving like an "Enthu Cutlet" (Chennai style).." .. Hilarious too.. http:/\u2026
p242
aVRT @IndiaToday: AAP to form government in Delhi, Arvind Kejriwal to be sworn-in as chief minister on December 26  http://t.co/Km6gC8L5nb
p243
aVsomeone pls do smthng about this family: http://t.co/T8bVOOGCQO @tajinderbagga @thekiranbedi @AnnaHazare1938  @narendramodi @drharshvardhan
p244
aVArvind Kejriwal himself doesn't respect his own words..
p245
aVRT @Aghorii2: @Swamy39 The U-TURNS of Arvind Kejriwal - A COMPLETE COMPILATION.  http://t.co/olDBkdJ5F2
p246
aVRT @Aghorii2: @Swamy39 The U-TURNS of Arvind Kejriwal - A COMPLETE COMPILATION.  http://t.co/olDBkdJ5F2
p247
aVRT @mediacrooks: Hahaha.. A letter to @ArvindKejriwal .. "Stop behaving like an "Enthu Cutlet" (Chennai style).." .. Hilarious too.. http:/\u2026
p248
aVRT @ThinkersPad: Pls ask people to read this http://t.co/kKJYXcwRQI they'll understand Arvind Kejriwal better, before its too late.
p249
aVRT @mediacrooks: Hahaha.. A letter to @ArvindKejriwal .. "Stop behaving like an "Enthu Cutlet" (Chennai style).." .. Hilarious too.. http:/\u2026
p250
aVRT @Aghorii2: @Swamy39 The U-TURNS of Arvind Kejriwal - A COMPLETE COMPILATION.  http://t.co/olDBkdJ5F2
p251
aV@ArvindKejriwal Because of AAP and arvind kejriwal I have developed a deep interest in politics .
p252
aVKabir,run by Arvind Kejriwal &amp; Manish Sisodia,key figures in AAP(Aam Aadmi Party),rcvd $400,000 from the Ford Foundation in the last 3 yrs
p253
asI5
(lp254
VRT @AapYoqendra: Having tutored both Rahul Gandhi and Arvind Kejriwal, I can say that both of them have strong ability at understanding peo\u2026
p255
aVRT @tajinderbagga: Whoever lost his watch in Arvind Kejriwal Janata Darbar Contact us for New Watch without any cost http://t.co/eiLaagY6Ux
p256
aVObjection overruled: Ghaziabad police to give Z security to Arvind Kejriwal http://t.co/dZi0318ecI via @ndtv
p257
aVRajdeep Sardesai's Blog : Can Arvind Kejriwal avoid a repeat of the 1989 VP Singh phenomena? http://t.co/XAvCLTqqW5 via @ibnlive
p258
aVRT @dhume: Just finished Arvind Kejriwal's "Swaraj." This cartoon pretty much sums up his view of foreign investment. http://t.co/0D0zASFzkB
p259
aVRT @IndiaSpeaksPR: Media requests Arvind Kejriwal to temporarily shift office to Chennai so that it can officially cover news 'outside' Del\u2026
p260
aVMan at Kejriwal's door to save marriage: \u201cOne phone call from Arvind Kejriwal can save our marriage,\u201d said a y... http://t.co/5RORUo35jt
p261
aVMan at Kejriwal's door to save marriage: \u201cOne phone call from Arvind Kejriwal can save our m... http://t.co/4W4irXZiWO via @timesofindia
p262
aVMan at Kejriwal's door to save marriage: \u201cOne phone call from Arvind Kejriwal can save our m... http://t.co/1yFJBYbV24 via @timesofindia
p263
aVMan at Kejriwal's door to save marriage: \u201cOne phone call from Arvind Kejriwal can save our marriage,\u201d said a y... http://t.co/CcxEiulGmE
p264
aVMan at Kejriwal's door to save marriage: \u201cOne phone call from Arvind Kejriwal can save our marriage,\u201d said a y... http://t.co/hENAxUZZwj
p265
aVPeople in other cities cant understand Delhites Love towards Arvind Kejriwal. @ArvindKejriwal
p266
aVAnarchy in Delhi due to unholy &amp; opportunist alliance govt of AAP-Cong headed by Sonia's Proxy Arvind Kejriwal http://t.co/HjvtpPRqs3
p267
aVObjection overruled: Ghaziabad police to give Z security to Arvind Kejriwal http://t.co/5qtnnKhTR9 http://t.co/XjMwfZQTYR
p268
aVDelhi: BJP warns Arvind Kejriwal government on power issues: New Delhi: The Bharatiya Janata Party (BJP... http://t.co/OpAsbK1sRt #Delhi
p269
aVMan at Kejriwal's door to save marriage: \u201cOne phone call from Arvind Kejriwal can save our marriage,\u201d said a y... http://t.co/Q7YjCcIgs1
p270
aVRT @JustSalmanKhan: "#JaiHo is about a man\u2019s personal fight for his family and friends...And it\u2019s not about AAP or Arvind Kejriwal.\u201d -@Bein\u2026
p271
aVRT @Hello_AAP: Objection overruled: Ghaziabad police to give Z security to Arvind Kejriwal http://t.co/qImuuO5Zkr via @ndtv
p272
aVRT @DineshGhodke: Overheard- I learn 4m Arvind Kejriwal's bipolar nature; 2say1thing&amp;do another. I'll join Aam Aadmi Party n #Vote4Modi :) \u2026
p273
aVAnswer by Kapil Bhatia to Arvind Kejriwal's AAP is acting like congress proxy political party to counter Narendra mo\u2026 http://t.co/aMfGT70Z9i
p274
aVRT @MissNobody72: BREAKING NEWS .... Arvind Kejriwal refused to purchase an underwear because VIP was written on it.!!!\u000a#YoKejriwalSoHonest
p275
aVRT @rishibagree: Ppl like Jairam Ramesh &amp; Arvind Kejriwal sometime raises serious doubt over IIT entrance tests!\u000a\u000a#YoKejriwalSoHonest #NaMo\u2026
p276
aVAnswer by Kapil Bhatia to Arvind Kejriwal's AAP is acting like congress proxy political party to counter Narendra mo\u2026 http://t.co/eqoXC1J8Kk
p277
aVRT @tajinderbagga: Whoever lost his watch in Arvind Kejriwal Janata Darbar Contact us for New Watch without any cost http://t.co/eiLaagY6Ux
p278
aV\u201cEven if a brick lands on him [Arvind Kejriwal], it may create huge law and order problem all over India - http://t.co/3SvCYfjiA7
p279
aVRT @MissNobody72: BREAKING NEWS .... Arvind Kejriwal refused to purchase an underwear because VIP was written on it.!!!\u000a#YoKejriwalSoHonest
p280
aVRT @Hardism: #YoKejriwalSoHonest when Raja Harishchandra was a kid, his father used to tell him stories about Arvind Kejriwal.
p281
aVRT @JustSalmanKhan: "#JaiHo is about a man\u2019s personal fight for his family and friends...And it\u2019s not about AAP or Arvind Kejriwal.\u201d -@Bein\u2026
p282
aVRT @MissNobody72: BREAKING NEWS .... Arvind Kejriwal refused to purchase an underwear because VIP was written on it.!!!\u000a#YoKejriwalSoHonest
p283
aVGhaziabad police to give 'Z' security to Arvind Kejriwal: Looking like the common man in every way, Aam Aadmi ... http://t.co/aYa3zbbmMo
p284
aVRT @MissNobody72: BREAKING NEWS .... Arvind Kejriwal refused to purchase an underwear because VIP was written on it.!!!\u000a#YoKejriwalSoHonest
p285
aV@AamAadmiParty @Vote4AAP  this one is Arvind's interview aired 2009.. http://t.co/TDUjHABLEf
p286
aVBREAKING NEWS....  Arvind Kejriwal refused to purchase an underwear because VIP was written on it.!!! ?
p287
aVRT @abhi553_kumar: I have never seen such a chameleon like Arvind Kejriwal in my life
p288
aVRT @CertifiedSton3r: Mr Arvind Kejriwal prove yourself in Delhi first, then work on your national ambitions. #AAP #bjp
p289
aVRT @IndiaSpeaksPR: Media requests Arvind Kejriwal to temporarily shift office to Chennai so that it can officially cover news 'outside' Del\u2026
p290
aVRT @JustSalmanKhan: "#JaiHo is about a man\u2019s personal fight for his family and friends...And it\u2019s not about AAP or Arvind Kejriwal.\u201d -@Bein\u2026
p291
aVRT @DealingAsistant: @vaibhavcoolkarn @AamAdmy @VarshaRitu_ @KiranGowdaLAD @Joydas bhai I have more than 100 reasons to trust Arvind Kejriw\u2026
p292
aVMr Arvind Kejriwal prove yourself in Delhi first, then work on your national ambitions. #AAP #bjp
p293
aV@vaibhavcoolkarn @AamAdmy @VarshaRitu_ @KiranGowdaLAD @Joydas bhai I have more than 100 reasons to trust Arvind Kejriwal.\u000a#AAP4India
p294
aVRT @vaidehisachin: Fact remains fact, what Arvind Kejriwal achieved in 13 months, was never possible for Congress and BJP together
p295
aVRT @ArnabGoswami_: Girl: "All boys are the same!" \u000aMe: Yes, because Uday Chopra, Arvind Kejriwal and Sharad Pawar share very extreme simila\u2026
p296
aVRT @ThinkersPad: Nice game. Mr. @ArvindKejriwal is taking Z Category Security through Akhilesh Yadav.  http://t.co/UXhaSSoN6t
p297
aVObjection overruled: Ghaziabad police to give Z security to Arvind Kejriwal http://t.co/Nxhv29jCG1 http://t.co/iqeqNdfApu
p298
aVDelhi: BJP warns Arvind Kejriwal government on power issues http://t.co/tcgZ86MffC
p299
aVI have never seen such a chameleon like Arvind Kejriwal in my life
p300
aVRT @IndiaSpeaksPR: Media requests Arvind Kejriwal to temporarily shift office to Chennai so that it can officially cover news 'outside' Del\u2026
p301
aVRT @ndtv: BJP warns Arvind Kejriwal government of agitation over power cuts http://t.co/DJIXB6LIH1
p302
as.