(dp0
I0
(lp1
VHas Sidharth Malhotra found love in Virat Kohli\u2019s ex-girlfriend? - http://t.co/jNuCHNhKB1 http://t.co/QD6qvOkSz7
p2
aV@yourdasanmolium HARSHHHHH. I don't even mind having India win, you guys just need to get rid of Virat Kohli! :C
p3
aVPhoto: teamindiacricket: Virat Kohli training before the Asia Cup. AFP http://t.co/tQi1rGu5LL
p4
aVSuppose u hv to buy a zoo.....Which animal would be a must in that zoo?? \u2014 Virat Kohli. http://t.co/qA0nFCCJCX
p5
aVRT @OiShahzaib: Porn hub should contact Virat Kohli.\u000aHe sucks so much.
p6
aVPorn hub should contact Virat Kohli.\u000aHe sucks so much.
p7
aVRT @oxymoronic_me: And Virat Kohli is still wondering which of his kisses turned the princess into a frog...
p8
aV@Vk_Ki_Ishaqzadi Your tweets to Virat made me laugh so hard. God Bless You Mrs Cheeko Kohli ! ;)
p9
aVRT @SirJadeja: Me: #HappyWomensDay\u000aVirat Kohli: Happy Maa-Behan Day.
p10
aVi think iindian team  nideed  to new captain\u000a\u000at 20 so virat kohli to new caption indian team
p11
aV"@wtfaaluda: Pakistani girls who say they have a crush on Virat Kohli, I feel like crushing them." Oh! really this is awful.
p12
aVRT @oxymoronic_me: And Virat Kohli is still wondering which of his kisses turned the princess into a frog...
p13
aV#ViratKohli #Cricket. Check out more images: http://t.co/Hf8d7T9qhk http://t.co/jbcDQwk3yd
p14
aV@imVkohli Bat- prized possession!\u000aVirat Kohli- Genuine! &lt;3 Remember this???
p15
aVAnd Virat Kohli is still wondering which of his kisses turned the princess into a frog...
p16
aV@imVkohli No matter we lost d Asia Cup dis tym, bt we hv found a responsible captain as Virat Kohli who cn lead Indian Team to a gr8 success
p17
aVSidharth Malhotra dating Virat Kohli's ex-girlfriend? - Hindustan Times  http://t.co/S9AG0I3cko
p18
aVRT @wtfaaluda: Pakistani girls who say they have a crush on Virat Kohli, I feel like crushing them.
p19
aVWonder how Virat Kohli celebrated Women's Day today!!!
p20
aVRT @THOUGHTS_EVER: Virat Kohli - Happy MaaBhen Day AQ PQ.
p21
aVRT @coolfunnytshirt: Virat Kohli - Happy MaaBhen Day!
p22
aVRT @oxymoronic_me: And Virat Kohli is still wondering which of his kisses turned the princess into a frog...
p23
aVRT @htShowbiz: @S1dharthM dating Brazilian model, reported to be Virat Kohli's ex http://t.co/zHjvPYm2X4 http://t.co/WT0X9lhbUd
p24
aV"SL won by 5 wickets this means we ended up as second runners up on average" Virat Kohli live from Mental Hospital :-P
p25
aVAnd Virat Kohli is still wondering which of his kisses turned the princess into a frog...
p26
aVRT @SirJadeja: Me: #HappyWomensDay\u000aVirat Kohli: Happy Maa-Behan Day.
p27
aVThere is lots of similarities between Ahmed Shehzad and Virat Kohli....similar face..batting..aggressive...fielding...,,,,,
p28
aVWho is the fastest 5000 run scorer\u000aafter Sir Viv Richards?\u000a\u000aA. Suresh Raina\u000aB. Chris Gayle\u000aC. Virat Kohli\u000aD. Ricky Ponting
p29
aVRT @oxymoronic_me: And Virat Kohli is still wondering which of his kisses turned the princess into a frog...
p30
aVFilmi! Has Sidharth Malhotra found love in Virat Kohli\u2019s ex-girlfriend? http://t.co/dLIBfEApjl #bollywood
p31
aVRT @The_Sleigher: After hitting so many centuries in Cricket, Virat Kohli fell for a Duck.
p32
aVI have seen a Virat Kohli In Pakistan Team...
p33
aVRT @The_Sleigher: After hitting so many centuries in Cricket, Virat Kohli fell for a Duck.
p34
aVRT @SirJadeja: Me: #HappyWomensDay\u000aVirat Kohli: Happy Maa-Behan Day.
p35
aVRT @SirJadeja: Me: #HappyWomensDay\u000aVirat Kohli: Happy Maa-Behan Day.
p36
aVRT @mohanstatsman: Virat Kohli 266 runs vs Pakistan: 183 in one innings &amp; in the remaining just 83 runs in 8 inngs! \u000a#AsiaCup \u000a#IndvsPak
p37
aVRT @SirJadeja: Me: #HappyWomensDay\u000aVirat Kohli: Happy Maa-Behan Day.
p38
aVHas Sidharth Malhotra found love in Virat Kohli\u2019s ex-girlfriend? http://t.co/dudJ9hKkB1 #bollywoodbindass
p39
aVVirat Kohli -_- remove your face from my tv!!!!
p40
aVRT @shihiboy: If Malinga is awarded with an AC for the most coolest player, Virat Kohli should be given a Heater..!! :D
p41
aVRT @shihiboy: If Malinga is awarded with an AC for the most coolest player, Virat Kohli should be given a Heater..!! :D
p42
aVIf Malinga is awarded with an AC for the most coolest player, Virat Kohli should be given a Heater..!! :D
p43
aVRT @oxymoronic_me: And Virat Kohli is still wondering which of his kisses turned the princess into a frog...
p44
aVSorry? What channel did Virat Kohli watch the cricket on?
p45
aVVirat Kohli showed that he doesnot differ Dhoni in any way.his team team selection showed what type of captain he is... #AsiaCup
p46
aVLatest T20 Batsman Rating :-) !\u000a\u000aVirat Kohli - 4th Rank\u000aSuresh Raina - 5th Rank\u000aYuvraj Singh - 6th Rank\u000a\u000aKeep... http://t.co/rsSArh4FL8
p47
aVBest! @TheMooli: Making Virat Kohli cry &gt; winning the cup\u201d
p48
aVYeh Cheeezzz!! "@TheMooli Making Virat Kohli cry &gt; winning the cup"
p49
aV@RizwanNida  Mubarak ho.!!! chest up kar k harein hein. At least Misbah didnt copy Virat Kohli ahhahha!!!
p50
aVRT @TheMooli: Making Virat Kohli cry &gt; winning the cup
p51
asI1
(lp52
VVirat Kohli overtakes MS Dhoni as trusted personality - Sportskeeda (blog) http://t.co/a6WAYycloz #dhoni #msd #cricket
p53
aV@T33K1NG LOL nah my dads saying to go and play this year haha and lemme know deffo Virat Kohli is returning \U0001f602\U0001f602
p54
aVAsia Cup: Virat Kohli laments mistakes that cost India heavily: India lost out on a place in the Asia Cup fina... http://t.co/gfekxU7s3M
p55
aVRT @WhatTheFriesShe: Want to hear a joke? \u000a\u000aVirat kohli.
p56
aVList of Virat Kohli\u2019s ODI Tons. Do you know the number?  \u000a\u000ahttp://t.co/f0NCZHhxrA http://t.co/bNCvwnWSZ2
p57
aVRT @pinkvilla: Sidharth Malhotra's dinner date with Virat Kohli's ex http://t.co/sORbkryhkX
p58
aVRT @raoo512: Last heard Rohit Sharma and Virat Kohli were fighting for window seat on the plane #PakvsInd #AsiaCup
p59
aVLast heard Rohit Sharma and Virat Kohli were fighting for window seat on the plane #PakvsInd #AsiaCup
p60
aVAnd they were like \u000aJb jb Asia cup aega Pakistan Virat kohli ke 183 ni bhule ga.\u000alol i think India AFRIDI ko kbhi... http://t.co/JpdTmwWOdh
p61
aVIs Sidharth Malhotra dating Virat Kohli's ex-girlfriend?\u000ahttps://t.co/iwsDYmPuuw
p62
aV*POPULAR INDIAN PLAYER CONTEST*\u000aElimination Round\u000aTime: 30 Minutes\u000aEliminated: Virat Kohli :'(\u000a\u000a1. Yuvraj Singh... http://t.co/rEvSsaVzpj
p63
aV*POPULAR INDIAN PLAYER CONTEST*\u000aElimination Round\u000aTime: 20 Minutes\u000aEliminated: Suresh Raina \u000a\u000a1. Virat Kohli \u000a2.... http://t.co/MD0MSpDyb8
p64
aV*POPULAR INDIAN PLAYER CONTEST*\u000aElimination Round\u000aTime: 20 Minutes\u000aEliminated: Virat Kohli\u000a\u000a1. Yuvraj Singh\u000a2. MS... http://t.co/KyJCuwYV9m
p65
aVThese blood sucking mosquitoes are more irritating than Virat Kohli. Suckers!
p66
aV@NitinFern "Virat Kholi cools off ..." LOL. Also why would I put Kohli in any top 10 list ? As per twitter consensus I hate him, no ?
p67
aVCurrent Ranking Of Virat Kohli In All Formats   || ODI Ranking || - Number - 2  || Test Ranking || - Number - 9  || T20 Ranking || -Number 4
p68
aVRT @akshaykanitkar: Janamdin Mubarak ho @bdheeraj \u000a\u000aFollow him also Guys....He's Virat Kohli of Wordplays\u000a\u000a#SF
p69
aVWoah! Virat Kohli overtakes MS Dhoni. Details - http://t.co/evh433AjTv http://t.co/zEXbTfWXpE
p70
aVJanamdin Mubarak ho @bdheeraj \u000a\u000aFollow him also Guys....He's Virat Kohli of Wordplays\u000a\u000a#SF
p71
aVWho is looking more dashing?\u000a\u000aLike = Shahid Afridi \u000aComment = Virat Kohli http://t.co/EDKxdpUHGi
p72
aV*POPULAR INDIAN PLAYER CONTEST*\u000aElimination Round\u000aTime: 20 Minutes\u000aEliminated: Suresh Raina :'(\u000a\u000a1. Virat Kohli... http://t.co/V4RlDTkbf3
p73
aV@rahul33tweets i admit virat kohli is talented and good batsman but one thing he has attitude problem
p74
aV12 Unknown Facts about Indian cricket's superstar Virat Kohli\u000a\u000aRead Here:- http://t.co/NxtgPOz95p
p75
aV12 Unknown Facts about Indian cricket's superstar Virat Kohli\u000a\u000aRead Here:-... http://t.co/uLYXYScGGf
p76
aV12 Unknown Facts about Indian cricket's superstar Virat Kohli\u000a\u000aRead Here:-... http://t.co/YIlBYwWC0d
p77
aVOur super innocent. Super cute virat. ^_^\u000a\u000aOnline fans hit like!!!\u000a\u000a#ViratianForLifeAndBeyond \u2665
p78
aVI'm so dead Lmaooo and its Virat Kohli* not kholi u fucking bastard -__- http://t.co/hXuhTLNprg
p79
aV@AnushkaSharma Anushka g i am watching ur episode on koffee with karan.U r saying that there is no match fixing b/w me and virat kohli.
p80
aV#WhenNothingWorks Take a deep breath and just shout Bhencho!  Ull feel relaxed. #NotANirmalBabaTweet its Virat Kohli Formula.
p81
aVRT @Helicopter_Shot: *POPULAR INDIAN PLAYER CONTEST*\u000aElimination Round\u000aTime: 20 Minutes\u000aEliminated: Rohit Sharma :(\u000a\u000a1. Virat Kohli... http\u2026
p82
aV*POPULAR INDIAN PLAYER CONTEST*\u000aElimination Round\u000aTime: 20 Minutes\u000aEliminated: Rohit Sharma :(\u000a\u000a1. Virat Kohli... http://t.co/AJFntV7UGd
p83
aVWho is the best Cricketer currently? Comment Fast \u000a\u000a1. Hashim Amla \u000a2. Virat Kohli \u000a3. Misbah Ul Haq \u000a4. David... http://t.co/75bMT1f40P
p84
aV#WhenNothingWorks\u000aBe Like Virat Kohli \u000aShoutout Loud....\u000a*BHENCHO*"
p85
aV#WhenNothingWorks\u000aBe Like Virat Kohli \u000aShoutout Loud....\u000a*BHENCHO*
p86
aV#WhenNothingWorks Take a deep breath and just shout Bhencho!  Ull feel relaxed. #NotANirmalBabaTweet its Virat Kohli Formula.
p87
aVWho is your favourite batsmen among these 2? Vote\u000a\u000aLIKE---&gt; Virat Kohli \u000a\u000aCOMMENT---&gt; Umar Akmal http://t.co/YpwyQ5T0PS
p88
aV1: Like Ahmad Shehzad's Fans\u000a.\u000a2: Comment Virat Kohli's Fans\u000a.\u000aAdmin..M.Waqas......!!! http://t.co/vqH2ha88fT
p89
aVAsia Cup: Virat Kohli laments mistakes that cost India heavily Rahane opening the innings correct bring yuvaraj raina  .drop sharma rayudu
p90
aVRT @BleedBlue4India: Thanks to Virat Kohli, matar matar everywhere on my TL.
p91
aVThanks to Virat Kohli, matar matar everywhere on my TL.
p92
aVJoin offical page of Virat Kohli here\u000a\u000ahttps://t.co/27dm2d1FxI http://t.co/XhGIhSBF3r
p93
aV#Pakistan #Travel #Celebrities #Islamic #Urdu Do you think Ahmed Shehzad resembles Virat Kohli? ... https://t.co/cGF9ioubwX
p94
aVWoah! Virat Kohli overtakes MS Dhoni. Details - http://t.co/gZS0CWJFqH
p95
aV#ViratKohli #Cricket. Check out more images: http://t.co/Hf8d7T9qhk http://t.co/9PYegM7Adf
p96
aV@cheese_charmer you are the virat kohli of twitter  @happy_statue
p97
aV@OhMyKohli From where did you get that Virat Kohli signed t-shirt?! #DP
p98
aV#NeverEndingFunMoments when Virat Kohli bats.. its a visual treat.. @Lays_India
p99
aVVirat Kohli says it was hard for him to motivate Team India !\u000aBut why ? Details ---&gt; http://t.co/TGU5Dw5rTJ http://t.co/WNRwR7tNsm
p100
aVAB de Villiers  62%,Virat Kohli 51%, MS Dhoni 50%,Dale Steyn 48%,Lasith Malinga  44% #ESPNCricinfo Fantasy league Most Picked Players. #Wt20
p101
aVRT @CricCentral: India's away Test record is woeful recently - and Dhoni should pay the price. Here's @akashfotedar5:\u000a\u000ahttp://t.co/64wwxBQ4\u2026
p102
asI2
(lp103
VRT @CrAzY_MaZa: Virat Kohli Dreams,\u000aAhhhh, Momy I Just Dreamed,\u000aShahid Afridi Hitting A Six, http://t.co/ZCBjSnm5kc
p104
aVRT @NitinKashyap_: Will #Nepal ever cheer for Virat Kohli's heroics in a Indo-Nepal cricket match!! Just think...!!
p105
aVVirat Kohli flops, Dhoni back as Captain http://t.co/fPJO3lgTAv http://t.co/KLKqoq4LSf
p106
aVVirat Kohli topple MS Dhoni from popularity charts - http://t.co/S6XJR2lBdY http://t.co/w1F4temMIz
p107
aVRT @The_Sleigher: After hitting so many centuries in Cricket, Virat Kohli fell for a Duck.
p108
aVRT @Miqbalkhan: Can I say I liked jonty rodes..or will I be punished to say that..or do I only have to like Yusuf Pathan or Virat kohli.wha\u2026
p109
aVRT @VikramSanghi11: @sunandavashisht Whenever Virat Kohli plays well against Pakistan the homes of the people of Koli community are vandali\u2026
p110
aVRT @Miqbalkhan: Can I say I liked jonty rodes..or will I be punished to say that..or do I only have to like Yusuf Pathan or Virat kohli.wha\u2026
p111
aVAnushka Sharma helps Virat Kohli topple MS Dhoni from popularity charts! - Daily Bhaskar http://t.co/KMrQ4Wxu0o @anushakasharma
p112
aV#Pakistan can't chase a target ? Bitch Please!! :D \u000a\u000a#india Virat Kohli trolled big time :D \u000a\u000aWatch | Like &amp; Share http://t.co/DNjfPPffwJ
p113
aVRT @pinkvilla: Sidharth Malhotra's dinner date with Virat Kohli's ex http://t.co/sORbkryhkX
p114
aV@BKVaali You get a #MunchKaPunch that your frnds are in good mood, when they come to you &amp; say 'Anna, ye toh same to same Virat Kohli' :')
p115
aVLast day of the contest tomorrow! Tweet  @BKVaali as much as possible with #MunchKaPunch. VIRAT KOHLI SIGNED BATS UP FOR GRABS!
p116
aV#lmao Anushka Sharma-Virat Kohli-Ahmed Shehzad... wadda #love triangle!! http://t.co/zROo2RDwsA
p117
aVRT @Gobuaa: Afridi: Hey Virat! Share a joke.\u000aKohli: IPL.\u000aAfridi: I didn't get it.\u000aKohli: Exactly!\u000a#BanvsPak
p118
aV@sunandavashisht Whenever Virat Kohli plays well against Pakistan the homes of the people of Koli community are vandalised in Pakistan
p119
aVRT @aownn: Pakistani girls who have a crush on Virat Kohli are the worst race of humans.
p120
aVRT @Miqbalkhan: Can I say I liked jonty rodes..or will I be punished to say that..or do I only have to like Yusuf Pathan or Virat kohli.wha\u2026
p121
aVRT @SidMalhotraFC: Article: Sidharth Malhotra's dinner date with Virat Kohli's ex http://t.co/jX64byBNyT
p122
aVVirat Kohli Signaled towards Afridi after Talha's Wicket. And Then ?? ___ Don't Mess with KHAN ! #Pakistan #PakvsInd http://t.co/cyfE6Jx2q9
p123
aVRT @PTI_Scientist: Virat Kohli Signaled towards Afridi after Talha's Wicket. And Then ?? ___ Don't Mess with KHAN ! #Pakistan #PakvsInd htt\u2026
p124
aVRT @CricCentric: Virat Kohli is not a happy soul! Find out why on http://t.co/uH5rRJdtqe #AsiaCup #kohli
p125
aVRT @SidMalhotraFC: Article: Sidharth Malhotra's dinner date with Virat Kohli's ex http://t.co/jX64byBNyT
p126
aVRT @pinkvilla: Sidharth Malhotra's dinner date with Virat Kohli's ex http://t.co/sORbkryhkX
p127
aVVirat Kohli signalled towards Afridi after Talha's Wicket.\u000aDon't Mess with KHAN :P http://t.co/ffXgehEnLz
p128
aVRT @PTI_Scientist: Virat Kohli Signaled towards Afridi after Talha's Wicket. And Then ?? ___ Don't Mess with KHAN ! #Pakistan #PakvsInd htt\u2026
p129
aVAfridi: Hey Virat! Share a joke.\u000aKohli: IPL.\u000aAfridi: I didn't get it.\u000aKohli: Exactly!
p130
aV#Pakistan #Travel #Celebrities #Islamic #Urdu Do you think Ahmed Shehzad resembles Virat Kohli? ... https://t.co/UqTDfhkMoa
p131
aVRT @Gobuaa: Afridi: Hey Virat! Share a joke.\u000aKohli: IPL.\u000aAfridi: I didn't get it.\u000aKohli: Exactly!\u000a#BanvsPak
p132
aVVirat Kohli slips to 10th spot in ICC Player Rankings http://t.co/ogaLC38uD9
p133
aVRT @Gobuaa: Afridi: Hey Virat! Share a joke.\u000aKohli: IPL.\u000aAfridi: I didn't get it.\u000aKohli: Exactly!\u000a#BanvsPak
p134
aVReading Virat Kohli -Reliable Rebel :) , A story of a super star hard work and dedication.
p135
aVAhmed Shehzad vs Virat Kohli Online Poll! Start Voting!\u000a\u000aLike for Virat Kohli &amp; Comment for Ahmed Shehzad!!! http://t.co/jLzIIpml0Z
p136
aV#WomenAreMadAbout virat kohli but he does BC MC.
p137
aVVirat Kohli is not a happy soul! Find out why on http://t.co/uH5rRJdtqe #AsiaCup #kohli
p138
aV@openskies275 @Miqbalkhan  i like both Virat kohli  &amp; Shahid afridi &amp;  just becoz  I am  Human.
p139
aVRT @LOL_SPORTS: Virat Kohli at his sarcastic best: http://t.co/9tsN5cBsgC
p140
aVStory of Virat Kohli (Must Read):\u000a\u000aOne night during December 2006, when Virat Kohli was with Team Delhi in... http://t.co/AXDau9ryQu
p141
aVThis is specially for d charmng nd vry #talented #aggresive #smart Virat kohli....\u2665\u2665 @imVkohli http://t.co/YF7SfIDSLF
p142
aVRT @PTI_Scientist: Virat Kohli Signaled towards Afridi after Talha's Wicket. And Then ?? ___ Don't Mess with KHAN ! #Pakistan #PakvsInd htt\u2026
p143
aVRT @NitinKashyap_: Will #Nepal ever cheer for Virat Kohli's heroics in a Indo-Nepal cricket match!! Just think...!!
p144
aVOh Virat Kohli! You just cant stop! Can you? RECORD BREAK ALERT!\u000aDetails--&gt; http://t.co/tCYLee4P48 http://t.co/hKTFgaKv1R
p145
aVRT @NitinKashyap_: Will #Nepal ever cheer for Virat Kohli's heroics in a Indo-Nepal cricket match!! Just think...!!
p146
aVRT @PTI_Scientist: Virat Kohli Signaled towards Afridi after Talha's Wicket. And Then ?? ___ Don't Mess with KHAN ! #Pakistan #PakvsInd htt\u2026
p147
aVRT @Miqbalkhan: Can I say I liked jonty rodes..or will I be punished to say that..or do I only have to like Yusuf Pathan or Virat kohli.wha\u2026
p148
aVRT @rk_my: "@pinkvilla: Sidharth Malhotra's dinner date with Virat Kohli's ex http://t.co/oD0i7036Em"
p149
aVRT @PTI_Scientist: Virat Kohli Signaled towards Afridi after Talha's Wicket. And Then ?? ___ Don't Mess with KHAN ! #Pakistan #PakvsInd htt\u2026
p150
aVRT @Miqbalkhan: Can I say I liked jonty rodes..or will I be punished to say that..or do I only have to like Yusuf Pathan or Virat kohli.wha\u2026
p151
aVRT @PTI_Scientist: Virat Kohli Signaled towards Afridi after Talha's Wicket. And Then ?? ___ Don't Mess with KHAN ! #Pakistan #PakvsInd htt\u2026
p152
aVVirat Kohli became extra shokha &amp; signalled towards Afridi after Talha's Wicket.\u000ain return Afridi MAde whole... http://t.co/9KXuaH2PbA
p153
asI3
(lp154
VZee News: Shikar Dhawan and Virat Kohli: The emerging heroes of Indian cricket http://t.co/NuTkuSDHLG
p155
aVZee News: Shikar Dhawan and Virat Kohli: The emerging heroes of Indian cricket - http://t.co/qlhidnW7Yk http://t.co/96f78ELxIt
p156
aV@Trendulkar You cry more than Virat Kohli. #achievement
p157
aVRT @KaptaanKhan_: Virat kohli isn't good against the pathans #Junaid #GUL #PAKvIND #INDvPAK
p158
aVRT @CricketNDTV: MSD on his bike in Ranchi today. Meanwhile, Google says his online popularity is 2nd to Kohli http://t.co/CqOfcHA8mo http:\u2026
p159
aVA series of losses overseas for Team India saw skipper Mahendra Singh Dhoni\u2018s popularity taking a hit on internet... http://t.co/OaEEQoaLNF
p160
aVRT @CricketNDTV: MSD on his bike in Ranchi today. Meanwhile, Google says his online popularity is 2nd to Kohli http://t.co/CqOfcHA8mo http:\u2026
p161
aVRT @CricketNDTV: MSD on his bike in Ranchi today. Meanwhile, Google says his online popularity is 2nd to Kohli http://t.co/CqOfcHA8mo http:\u2026
p162
aVRT @CricCrazyNIKS: Virat Kohli now has more centuries than the age of Shahid Afridi. #AsiaCup
p163
aVRT @viratkohli_x: @BKVaali Virat Kohli everyday inspires me to never give up, no matter how difficult the situation is, face it &amp; u ll succ\u2026
p164
aVCaptaincy Shift - Virat Kohli #repost http://t.co/QrImCdd8uY
p165
aVRT @RoflGandhi_: BJP's Nalin Kohli doing a Virat Kohli, smashing opponents out of the park while abusing them. http://t.co/o8CeXNGMWn
p166
aVRT @SirJadeja: Dear Girls who are now dreaming of giving bl0w j0bs to Virat Kohli, do remember what happened to Anushka Sharma's lips. #Ind\u2026
p167
aVLove from Swedish guys for Afridi and a suiiiii for Virat Kohli. http://t.co/4EMyg5m3s9
p168
aVIEO Loss in their stride: Virat Kohli\u2019s young team has showed potential, it deserves a long rope. http://t.co/qOLLM5yblx
p169
aVRT @CricketNDTV: MSD on his bike in Ranchi today. Meanwhile, Google says his online popularity is 2nd to Kohli http://t.co/CqOfcHA8mo http:\u2026
p170
aVRT @cricinfo_record: Kumar Sangakkara (1011*) has become the first visiting batsman to reach 1000 ODI runs in Bangladesh - next best Virat \u2026
p171
aV@imVkohli Hey you looked very lost during the match today. Hope to see a happy and smiling Virat kohli in the T20 worldcup. God bless :)
p172
aVVirat Kohli admits it was tough to stay motivated for match vs Afghanistan http://t.co/ET9tnHUG3h
p173
aVStaying motivated for Afghanistan game was a challenge: Kohli: MIRPUR: India skipper Virat Kohli said it was d... http://t.co/KDhkF9BHzM
p174
aVNalin Kohli ko Virat Kohli se kuch seekhna padega,Tab hum expect kr sakte hai ki #ViolentBJP be consitentently perform karege.
p175
aV@myselfr7 Everything Virat Kohli does is brilliant. He can do no wrong. He's the next great Indian icon.
p176
aVStaying motivated for Afghanistan game was a challenge: Kohli: MIRPUR: India skipper Virat Kohli said it was d... http://t.co/xwzqZuY6Wq
p177
aVRT @RoflGandhi_: BJP's Nalin Kohli doing a Virat Kohli, smashing opponents out of the park while abusing them. http://t.co/o8CeXNGMWn
p178
aVRT @imVkohliFanClub: [PICS] @imVkohli during the #IndvsAfg ODI at Dhaka. #AsiaCup #CaptainKohli #VK18FanClub --&gt; http://t.co/Kgqdcqb6Z5 htt\u2026
p179
aVRT @imVkohliFanClub: [ARTICLE] @imVkohli Admits It Was Tough To Stay Motivated For #IndvsAfg ODI. #VK18FanClub --&gt;  http://t.co/PuGPjwDgLu \u2026
p180
aVStory of Virat Kohli (Must Read):\u000a\u000aOne night during December 2006, when Virat Kohli was with Team Delhi in... http://t.co/gQpuZMUUoK
p181
aVRT @RoflGandhi_: BJP's Nalin Kohli doing a Virat Kohli, smashing opponents out of the park while abusing them. http://t.co/o8CeXNGMWn
p182
aVIndia Squad For This Year T20 World Cup!!\u000a\u000aMS Dhoni (c &amp; wk), Ravichandran Ashwin, Shikhar Dhawan, Virat Kohli,... http://t.co/3tKJN5NlXR
p183
aV#Octozone: #Captain Kohli will win a World Cup http://t.co/0C42S5iEEn
p184
aVHard to motivate team after being out of contention for the final, says Virat Kohli http://t.co/KijfGMR5Nd
p185
aVStaying motivated for Afghanistan game was a challenge: Kohli: MIRPUR: India skipper Virat Kohli said it was d... http://t.co/yknlVJ1Cg2
p186
aVRT @ImSarathC: Suresh Raina now wants to make a comeback as wicket-keeper, but under one condition!\u000aDetails-----&gt; http://t.co/lZgFmROHT9 #H\u2026
p187
aVRT @CricketNDTV: MSD on his bike in Ranchi today. Meanwhile, Google says his online popularity is 2nd to Kohli http://t.co/CqOfcHA8mo http:\u2026
p188
aVStaying motivated for Afghanistan game was a challenge: Kohli: MIRPUR: India skipper Virat Kohli said it was d... http://t.co/PqgeK3dC2C
p189
aVRT @gaggycool: Virat Kohli's middle finger #TheWorstJobToHave
p190
aVI think virat kohli is good captain of indian's team ever..........
p191
aVVirat Kohli seems fine with where the team stands in #AsiaCup2014. May be its Anushka consoling him or he is #BornWithIt
p192
aVRT @RoflGandhi_: BJP's Nalin Kohli doing a Virat Kohli, smashing opponents out of the park while abusing them. http://t.co/o8CeXNGMWn
p193
aVRT @RoflGandhi_: BJP's Nalin Kohli doing a Virat Kohli, smashing opponents out of the park while abusing them. http://t.co/o8CeXNGMWn
p194
aVVirat Kohli's gift to Dhoni? (+playlist): http://t.co/XbYnLeewpq via @youtube
p195
aVStaying motivated for Afghanistan game was a challenge: Kohli: MIRPUR: India skipper Virat Kohli said it was d... http://t.co/n12BC3eM8l
p196
aVVirat Kohli on his 13th Century (+playlist): http://t.co/jCUFAqzoww via @youtube
p197
aVVirat Kohli plays the Word Association Game (+playlist): http://t.co/f9AFb9y4gr via @youtube
p198
aVStaying motivated for Afghanistan game was a challenge: Kohli: MIRPUR: India skipper Virat Kohli said it was d... http://t.co/2SX7MS3I65
p199
aVIf a drink was named after Virat Kohli what would he call it? (+playlist): http://t.co/FrQleMkuw0 via @youtube
p200
aVVirat Kohli.......I lv U LIke hell..\u000a\u000aNO words to explain...!!!
p201
aVRT @RoflGandhi_: BJP's Nalin Kohli doing a Virat Kohli, smashing opponents out of the park while abusing them. http://t.co/o8CeXNGMWn
p202
aVRT @timesofindia: Virat Kohli reaches career-best ranking of 8th in Tests http://t.co/yiU36OaIem
p203
aVRT @badalrocks: Virat Kohli played 4 bowlers + Jadeja. Moved Rahane up the order in place of Rohit Sharma. I wish he was our captain. #Asia\u2026
p204
asI4
(lp205
V@imVkohli @VKAngels @ViratGang @ViratLovers  It's not over when u're losing terribly, its over when you quit.. I support Virat Kohli.
p206
aV@imVkohli @VKAngels The love of the game is in his heart, which spreads to the blood which he bleeds.. 3 cheers to Virat Kohli.. Love u VK..
p207
aVRT @King___SRK: RT @V1SH4L: Virat Kohli as a "Commentator".. Aur Yeh Ball Hawa mein, Aur Yeh MC fielder Neeche Aate Hue. . . . Aur Yeh BC O\u2026
p208
aV@imVkohli I know Team India is out of the Aisa Cup but still people around the world support Virat Kohli for his outstanding performance.
p209
aVVirat Kohli trending more than Mahendra Singh Dhoni http://t.co/rofRd8ViEl
p210
aVRT @SirJadeja: Anushka Sharma's reaction after watching Virat Kohli's dismissal. #IndVsPak http://t.co/09J30ACzvn
p211
aVRT @SirJadeja: NewTON Law: For every Virat Kohli's failure, there is an equal and opposite success from Rohit Sharma. #IndVsPak
p212
aVVirat Kohli trending more than Mahendra Singh Dhoni Google has revealed that while MS Dhoni's absence from Asia Cu http://t.co/blyp3iJuDx
p213
aVRT @Earlsimxx: Virat Kohli's R8 in metallic blue wrap http://t.co/W2BG0A9h2s
p214
aVVirat #kohli therealsher10 http://t.co/GUQ4sdBAyQ
p215
aVRT @Earlsimxx: Virat Kohli's R8 in metallic blue wrap http://t.co/agct1Lngam
p216
aVVirat Kohli's R8 in metallic blue wrap http://t.co/agct1Lngam
p217
aVRT @AffieTweets: @adarshsrkian I personally admire Yuvraj, especially his fight back after cancer. then Ganguly, &amp; Virat Kohli is amazing b\u2026
p218
aVRT @Hussayy_: "@Trendulkar: We did the impossible. We brought Afridi back to form. Jai hind."\u000a\u000aVirat Kohli ko pehely aurat se mard toh bana\u2026
p219
aV@adarshsrkian I personally admire Yuvraj, especially his fight back after cancer. then Ganguly, &amp; Virat Kohli is amazing batter
p220
aVRT @ladha_salman: dear anushka sharma,please block virat kholi on FB and send friend request to shahid afridi..
p221
aVRT @IndiaToday: Kohli beats Dhoni to become most searched Indian cricketer on net http://t.co/liYoBC9ppI
p222
aVDear Pakistanis," you're a fucking moron" isn't the only way to abuse. Learn from Virat Kohli, he abuses your players in 999 different ways
p223
aVRT @CricketNDTV: Virat Kohli trending more than Mahendra Singh Dhoni http://t.co/b71jq9RL6V
p224
aVWhosoever came up with the rdiculous comparison between @iamAhmadshahzad and virat kohli,deserves a Slap! #Virat Yukhh
p225
aVRT @abdullah_0mar: According to Arun Lal, Shehzad is missing brother of Virat Kohli during partition. #BanVsPak #AsiaCup
p226
aVAfridi Ki Bt Choro Yar Wo To Hogaya Soch Raha Hon K Yahan To 3 Pathan The Agle Match Me To 11 Pathan Hai Unka Kia Karenge\u000aSays \u000avirat Kohli
p227
aVVirat Kohli trending more than Mahendra Singh Dhoni http://t.co/uOEtCUcRUE
p228
aVRT @viratliciousFC: #ViratKiToli "Kohli beats Dhoni to become most searched Indian cricketer on net http://t.co/6xxrCjna4z"
p229
aVRT @IndiaToday: Kohli beats Dhoni to become most searched Indian cricketer on net http://t.co/liYoBC9ppI
p230
aVRT @CricketNDTV: Virat Kohli trending more than Mahendra Singh Dhoni http://t.co/b71jq9RL6V
p231
aVRT @manikarthik_com: Virat Kohli trending more than Mahendra Singh Dhoni http://t.co/WKjsWPjCP7 #Cricket
p232
aVSuper batting by Virat Kohli: http://t.co/UFMcvdMAkL via @YouTube
p233
aVAhmed shehzad = Poor Man's Virat Kohli LOL
p234
aVRT @zaieemm: #Urgent BC Negative Harpic required for a patient namely Virat Kohli who has been 'Bleeding Blue' per rectum since 2 days.Cont\u2026
p235
aVRT @IndiaToday: Kohli beats Dhoni to become most searched Indian cricketer on net http://t.co/liYoBC9ppI
p236
aVRT @CricketNDTV: Virat Kohli trending more than Mahendra Singh Dhoni http://t.co/b71jq9RL6V
p237
aVVirat Kohli trending more than Mahendra Singh Dhoni http://t.co/47M5lnYmk3 #Cricket
p238
aV@akku_93 hii i hve just gone thru ur tweets n i come 2 know dat u r living near to virat kohli . can u plz tell me where he live in delhi?
p239
aVRT @CricketNDTV: Virat Kohli trending more than Mahendra Singh Dhoni http://t.co/b71jq9RL6V
p240
aVDear Pakistanis," you're a fucking moron" isn't the only way to abuse. Learn from Virat Kohli, he abuses your players in 999 different ways
p241
aVRT @Hussayy_: "@Trendulkar: We did the impossible. We brought Afridi back to form. Jai hind."\u000a\u000aVirat Kohli ko pehely aurat se mard toh bana\u2026
p242
aVLets pay some respect to the incredible talent in virat Kohli n watch tomorrow's game :-P, #asiacup
p243
aVRT @GautiAranyaka: Yaar that guy shehzad ( pakistani opener) looks so much like Virat Kohli .. Does'nt he?
p244
aVRT @The_Sleigher: In childhood Virat Kohli's favorite show was Gaali Gaali Sim Sim.
p245
aVYaar that guy shehzad ( pakistani opener) looks so much like Virat Kohli .. Does'nt he?
p246
aVRT @Hussayy_: "@Trendulkar: We did the impossible. We brought Afridi back to form. Jai hind."\u000a\u000aVirat Kohli ko pehely aurat se mard toh bana\u2026
p247
aVRT @Ra_Bies: Dear Pakistanis," you're a fucking moron" isn't the only way to abuse. Learn from Virat Kohli, he abuses your players in 999 d\u2026
p248
aVRT @CricketNDTV: Virat Kohli trending more than Mahendra Singh Dhoni http://t.co/b71jq9RL6V
p249
aVRT @GsRuba: Virat Kohli trending more than MS Dhoni (via NDTV)\u000aGee media has nothing better to do these days than to find out who's trendin\u2026
p250
aVVirat Kohli trending more than Mahendra Singh Dhoni: Google has revealed that while MS Dhoni's absen... http://t.co/N1l4rvp2mT via @ndtv
p251
aVVirat Kohli trending more than Mahendra Singh Dhoni http://t.co/as0Ia8WQ69
p252
aVVirat Kohli trending more than Mahendra Singh Dhoni: Google has revealed that while MS Dhoni's absence from As... http://t.co/S9oH5Gwlsf
p253
aVVirat Kohli trending more than Mahendra Singh Dhoni: Google has revealed that while MS Dhoni's absence from As... http://t.co/IuqjJhwlHS
p254
aV#JHDAR Google has revealed that while MS Dhoni's absence from Asia Cup has reduced his online popularity, ... http://t.co/j4kNKElh0y #fb
p255
asI5
(lp256
V#ViratKohli #Cricket. Check out more images: http://t.co/Hf8d7T9qhk http://t.co/HeglW1YXZf
p257
aVAsia Cup: Praying for miracle, Virat Kohli sets sights on Afghanistan - http://t.co/kiu35e8kwC http://t.co/poDPyUfy2T
p258
aVcaptain Virat Kohli R with teammates returns to the dressing room after losing the match against Pakistan in Dhaka. http://t.co/MLSR77NUOe
p259
aVCan Virat Kohli break Sachin Tendulkar's seemingly unbreakable ODI record? http://t.co/gK2mqHlrTC
p260
aVRT @Jaweriyaa: Virat Kohli looks a bit like Rustem Pasha from Mera Sultan's younger version to me.
p261
aVVirat Kohli looks a bit like Rustem Pasha from Mera Sultan's younger version to me.
p262
aVVirat Kohli- The Man who plays for India not for money. .\u000a\u000aSome people say Youngsters now a days just play for... http://t.co/EZl2AU5ijh
p263
aVVirat kohli needs to be given "Dick of the year" award
p264
aVRT @Vkibb: Who is Better Captain ?\u000a\u000aLike --- Virat Kohli\u000a\u000aCmnt -- MS Dhoni http://t.co/IO6516IleD
p265
aVLook the reactions of Virat Kohli. Real loser stuff really without any sportsman spirit \u000a\u000aSend your reactions... http://t.co/DxaI7ezLQ9
p266
aV@matt_watson92 A chance to add another massively unpopular player to the squad. Virat Kohli?
p267
aVRT @bhogleharsha: was just telling someone that with virat kohli on 52 from 50 the mind would contemplate a century. with rohit.......
p268
aVWho is Better Captain ?\u000a\u000aLike --- Virat Kohli\u000a\u000aCmnt -- MS Dhoni http://t.co/IO6516IleD
p269
aVRT @AltCricket: #INDvsPAK gives us a chance to play a favourite game of mine: Ahmed Shehzad, or Virat Kohli? http://t.co/RD7AAIWrCz
p270
aVRT @AltCricket: #INDvsPAK gives us a chance to play a favourite game of mine: Ahmed Shehzad, or Virat Kohli? http://t.co/RD7AAIWrCz
p271
aVRT @naalaYUCK: Virat Kohli: When did Britishers invaded India?\u000aGirl: Around 1600 BC.\u000aKohli: Tu Benchod
p272
aVwowowow cant believe this man wonn the MRF Virat Kohli bat fhammm
p273
aVVirat Kohli- The Man who plays for India not for money. .Some people say Youngsters now a days just play for... http://t.co/eAEM3lyTCv
p274
aVRT @IamIbrahimKhan: Pakistanis hate Indians, Virat Kohli, Phuppos, Biryani haters, relatives, unexpected guests and adults comparing with o\u2026
p275
aVDear Virat Kohli LOL LOL LOL http://t.co/gR978EHutA
p276
aVLook the reactions of Virat Kohli. Real loser stuff really without any sportsman spirit  #PakvInd http://t.co/xD98djFuDj
p277
aVLook at the reaction of virat kohli after losing the match.
p278
aVRT @IamIbrahimKhan: Pakistanis hate Indians, Virat Kohli, Phuppos, Biryani haters, relatives, unexpected guests and adults comparing with o\u2026
p279
aVLook the reactions of Virat Kohli. Real loser stuff really without any sportsman spirit \u000a\u000aSend your reactions... http://t.co/YPRO3KS1Ep
p280
aV@kavitajha70 Awww ! U in love wid virat kohli :)\u000a#Cute
p281
aVRT @AyoKatsumoto: #Octozone: #Captain Kohli will win a World Cup http://t.co/3LT4Mlh97i
p282
aVRT @SirJadeja: NewTON Law: For every Virat Kohli's failure, there is an equal and opposite success from Rohit Sharma. #IndVsPak
p283
aVRT @SirJadeja: Virat Kohli got man of the match award for his century. Mushfiqur Rahim should've at least got Aadhar card for his 100. #Ind\u2026
p284
aVRT @bhogleharsha: was just telling someone that with virat kohli on 52 from 50 the mind would contemplate a century. with rohit.......
p285
aV@subbureddy @roshd @Spooferman_ @vchatting @Rittsratty The last I've known of only Virat Kohli showing his middle finger. With no excuse!
p286
aVvirat kohli is best young cricketer in cricket history"yet.
p287
aVRT @VKAngels: [ MUST READ ARTICLE ]\u000a'Virat Kohli will lead India to World Cup win\u2019 (via @cricket_country) http://t.co/Ex67dFcRqD
p288
aVRT @IamIbrahimKhan: Pakistanis hate Indians, Virat Kohli, Phuppos, Biryani haters, relatives, unexpected guests and adults comparing with o\u2026
p289
aVRT @SirJadeja: NewTON Law: For every Virat Kohli's failure, there is an equal and opposite success from Rohit Sharma. #IndVsPak
p290
aVRT @SirJadeja: Anushka Sharma's reaction after watching Virat Kohli's dismissal. #IndVsPak http://t.co/09J30ACzvn
p291
aVRT @bhogleharsha: was just telling someone that with virat kohli on 52 from 50 the mind would contemplate a century. with rohit.......
p292
aVRT @manikarthik_com: It's a good learning experience for me, says Virat Kohli http://t.co/CJfMTrlkcW #Cricket
p293
aVKumar Sangakkara (1011*) has become the first visiting batsman to reach 1000 ODI runs in Bangladesh - next best Virat Kohli (921).
p294
aVThe most difficult job in the world is being Virat Kohli &amp; faking a smile when every hair of your body is screaming"BHENCHOD"
p295
aVRT @fakingnews: Virat Kohli has proven himself. That he can chase even when target is below 300.
p296
aVRT @MissSmilie_: Me. English books. Black pen. Virat Kohli writing pad. We're having a great time together. :| #Studytime
p297
aVRT @AltCricket: Virat Kohli: high-quality chases on the field, chases high quality off the field.
p298
aVRT @SufyanCricket: Correction: Virat Kohli is the first captain to score hundred in first match in Asia Cup as captain #nowcorrectstats @me\u2026
p299
aVRT @SirJadeja: Virat Kohli got man of the match award for his century. Mushfiqur Rahim should've at least got Aadhar card for his 100. #Ind\u2026
p300
aVRT @SirJadeja: Dear Girls who are now dreaming of giving bl0w j0bs to Virat Kohli, do remember what happened to Anushka Sharma's lips. #Ind\u2026
p301
aVRT @merin_kumar: Virat Kohli not only will break Sachin ODI records but also will break all Indian captain records held by Dhoni.
p302
aVYou won't believe this but true. Virat Kohli has a better record as a \u000acaptain than MS Dhoni.\u000a\u000aDetails - http://t.co/UV4I1iINL6
p303
aVRT @CricketNDTV: Virat Kohli fastest to 19 hundreds, breaks Chris Gayle's world record http://t.co/KTxvUGftSu
p304
aVRT @RCBTweets: Yesterday, while Virat lead the Indian team to victory, he also broke Gayle's world record! Here's a blog on the same http:/\u2026
p305
aVRT @SirJadeja: Anushka Sharma's reaction after watching Virat Kohli's dismissal. #IndVsPak http://t.co/09J30ACzvn
p306
as.