(dp0
I0
(lp1
VTick... tick ... tickkk...\u000aOnly  1 days left ...\u000aPKISTAN V/S INDIA.......... dont miss it
p2
aV@ndtv its a fabulous finding for US,in India n Pkistan even 3yrs old knows dat Osama was hidden inPakistan wid help of Pakistan's authority
p3
asI1
(lp4
V@WarGhost12 patriots r those who are ready to spare Kashmir for few bucks of donation from Pkistan? @Venky1971 @ashutosh83B @ashutosh083B
p5
aV@hinamuneer in the field of techno#logy \u000aIT industry is now twic in size\u000aPkistan lanched the 1st Satelite\u000aTher is mre dne by asian mentlity
p6
aVW/FOLLOW\u000aApna_Pkistan\u000aFOLLOW\u000aTWITTER
p7
asI2
(lp8
VJOBS &amp; OTHER ADS IN PAKISTAN: Jobs in... http://t.co/hyxk75cexn
p9
aVRT @bornforcure: #MQM30th we remove the dog of fudilism from PKISTAN
p10
aVRT @bornforcure: #MQM30th we remove the dog of fudilism from PKISTAN
p11
aV#MQM30th we remove the dog of fudilism from PKISTAN
p12
asI3
(lp13
V@IraqiWitness just as abdullah azam didnt explain before he left for pkistan..
p14
asI4
(lp15
V@Aryan_Khan12 aryan bro plz yar follow me i m frome pkistan peshawar i m biggest fan of SIR SRK plz follow me
p16
aVHu be datarget of missing plane? Syria Iran india Chna S.Korea Putin Pkistan Afghnistn Ukraine Israel Egypt Irak US Knya... let's get alone
p17
asI5
(lp18
VJOBS &amp; OTHER ADS... http://t.co/F1zXn9dljC
p19
aVRT @GoharJutt: #Nurses sit in countinues in #Lahore but Punjab govt isn't ready to listen them\u000aIs it good governce by #Pmln #Pkistan #WHO #\u2026
p20
aVRT @GoharJutt: #Nurses sit in countinues in #Lahore but Punjab govt isn't ready to listen them\u000aIs it good governce by #Pmln #Pkistan #WHO #\u2026
p21
aVRT @GoharJutt: #Nurses sit in countinues in #Lahore but Punjab govt isn't ready to listen them\u000aIs it good governce by #Pmln #Pkistan #WHO #\u2026
p22
aV#Nurses sit in countinues in #Lahore but Punjab govt isn't ready to listen them\u000aIs it good governce by #Pmln #Pkistan #WHO @Shahidmasooddr
p23
aVRT @GoharJutt: #Nurses sit in countinues in #Lahore but Punjab govt isn't ready to listen them\u000aIs it good governce by #Pmln #Pkistan #WHO #\u2026
p24
aVRT @GoharJutt: #Nurses sit in countinues in #Lahore but Punjab govt isn't ready to listen them\u000aIs it good governce by #Pmln #Pkistan #WHO #\u2026
p25
aV#Nurses sit in countinues in #Lahore but Punjab govt isn't ready to listen them\u000aIs it good governce by #Pmln #Pkistan #WHO  @ImranKhanPTI
p26
aV#Nurses sit in countinues in #Lahore but Punjab govt isn't ready to listen them\u000aIs it good governce by #Pmln #Pkistan #WHO #HRC @sadaf_Ary
p27
aV#Nurses sit in countinues in #Lahore but Punjab govt isn't ready to listen them\u000aIs it good governce by #Pmln #Pkistan #WHO #HRC
p28
aVAnimal show in Pkistan
p29
as.