(dp0
I0
(lp1
VI share my birthday with our beautiful First Lady. HAPPY BIRTHDAY FLOTUS!!! http://t.co/kqOr6HhbNY
p2
aVRT @snowsoftharry: HE MAKES ME SO HAPPY http://t.co/OSkXj5WSOJ
p3
aVGood morning , happy weekend :D
p4
aV@eluxate a min left - HAPPY BIRTHDAY! \U0001f389\U0001f389\U0001f389\U0001f618\U0001f618\U0001f618\U0001f618
p5
aV@robynceee HAPPY BIRTHDAY BESTIE, LOVE U HOPE U LIKE UR PRESSIE\U0001f60f\U0001f389\u2764\ufe0f
p6
aVHappy BLUE Friday y'all!!!\u000a#GoHawks #SFvsSEA #letswinthis #LOUDER #betterthanchristmas http://t.co/0PJ0Fadtlo
p7
aVMy bestie is so in love , and im happy
p8
aV@Luke5SOS \u2661\u2661 Hi Luke Hemmings from 5SOS  Please follow me  It would mean so much to me  You make me happy and I love you. \u2661\u2661 x1784
p9
aVHappy birthday to the coolest girl in my course and a wonderful person @coolesthandleva . Many more years . God bless you richly .
p10
aVRT @DoctorPug: pls rate how u r feelin on a scales of 1-5\u000a\u000a1 bein icky yucky\u000a5 bein happy jiggly
p11
aVRT @AMNH: Happy birthday to Ben Franklin, who had an omnivorous interest in natural phenomena, including fossils http://t.co/Pb8FNcGpZV
p12
aV@ellie_mcshannon happy birthday Ellie! have a lovely day\U0001f618\U0001f495
p13
aV@PariEndorsed happy birthday hunny\U0001f389\U0001f389\U0001f38a\U0001f618
p14
aVAh, home. Happy for the weekend with @MrTimMiller &amp; the amazing joy of knowing God is in control and is crazy good. Let's rest in that.
p15
aVRT @Polo_Fresh1: white girls be like "happy birthday bestfriend\u263a" http://t.co/c1pKTOMTKk
p16
aV@nomnomnialler happy birthdaaaayyyyy! x
p17
aV\u201c@DoctorPug: pls rate how u r feelin on a scales of 1-5\u000a\u000a1 bein icky yucky\u000a5 bein happy jiggly\u201d@sarabethterry @dhump15 @wblakebosch
p18
aVRT @Retweets90s: \U0001f60a#90sBabyFollowTrain\U0001f60a\U0001f44c\U0001f60a\u2730R\u2208\u01ac\u019c\u2208\u2208\u01ac\u21ba\u2730\U0001f3c3 \u261d\U0001f60a\u0562\u0585ll\u0585\u03c9 m\u0454 &amp; \u03c9\u0452o \u044f\u0454\u0442\u03c9\u0454\u0454\u0442\u21ba\u2714 \u270c\U0001f60a\u0562\u0585ll\u0585\u03c9\u10e9\u10db\u0188\u0199\ufffd\U0001f44c\u261e \U0001f44cWE'RE ALL HAPPY\u263a\U0001f44c \U0001f44c#TeamFollowBack\U0001f44c
p19
aVHappy birthday to me !!!!!!
p20
aV"@Polo_Cutthroat: I DONT PLAY WITH FEMALES FEELINGS THATS JUST ME I LIKE TO SEE MY LADIES HAPPY &amp; SMILING" \ue41f\ue41f
p21
aVOmgggg I'm so happy @lifeofzaiden_  , zaiden is herrrreeee
p22
aVI think it's so crazy how I can be so happy with someone
p23
aVRT @AY_QueBonita_: You ever been so happy you wanna cry ?
p24
aVRT @GeorgeForeman: Happy birthday Muhammad Ali. It's an honor to say "You KO'd me" Man I love you. Enjoy some cake
p25
aV@ryanisnasty ikr it's not hard to be happy for someone man
p26
aV@8itchyPir8 *Andy giggles, happy to have pleased someone so\u2026experienced* Thank you, Mindfang! *her hands slide up and down her curves*
p27
aVRT @BestMusicLyric: "I'm so happy 'cause today I found my friends, they're in my head." \u2013Nirvana
p28
aVRT @jenmac4life: I would like to take a moment to wish the best woman alive a happy birthday. \u263a\ufe0f I love you Betty White\U0001f618 http://t.co/TBSjpU\u2026
p29
aVRT @aarbeloa17: Thanks for all your Happy Birthday wishes!!!! HALA MADRID!!!! http://t.co/u0ZoCkZbar
p30
aV@benwillbond Happy Birthday, have an awesome day! your such an amazing idol and could wish for any better idols! x x
p31
aVHappy birthday @imsethgothico
p32
aV@charlllholden HAPPY BIRTHDAY XXX
p33
aV@whartonag Happy with the matches and results?
p34
aVRT @aasolis7: happy birthday alpal! I love you to the moon and back, go crazy!\U0001f618\U0001f389 @aly_carlson
p35
aVRT @RunningMom6: Take control of your life. Say no when you need to. It is okay. Trust me, a happy you is a better you!
p36
aVRT @JoseAyy: Happy bday Stevo @scuevas25
p37
aVHAPPY EARLY Bday to one half of the coolest duo I know, @TheEpicLLOYD :)
p38
aVHe was such a happy puppy
p39
aVRT @joe948h: When I'm ready to die, I'm gonna go out by eating until my stomach burst. I'll have died happy.
p40
aVHappy Birthday P! (@ Bar Louie w/ 4 others) http://t.co/zH4BKlB0sL
p41
aVRT @lolurnotharry: @Nxrryscraicx happy birthday, then \U0001f389\U0001f381
p42
aVHappy birthday 2 my childhood HERO @JohannesMathews. If u have met this bro of mine,u won't understand how +ve a man he is. God be with you
p43
aVOne last time happy birthday Eddie:D
p44
aVRT @annecurtissmith: Tonight goes to show how loved you are by many! Happy happy Birthday Timmy!!! Wishing you another year\u2026 http://t.co/NY\u2026
p45
aVRT @JanelleMonae: Happy Birthday to our F.E.L.O.T.U.S (First Electric Lady of The United States)! We love you!!!! #michelleobama
p46
aVRT @KayGurls: @LostGirlOUAT happy birthday!
p47
aVGot my tv back so happy
p48
aVRT @JanelleMonae: Happy Birthday to our F.E.L.O.T.U.S (First Electric Lady of The United States)! We love you!!!! #michelleobama
p49
aV#UnpopularConfession cleaning makes me so happy \U0001f60c\U0001f60c\U0001f60c
p50
aVRT @siwon407: my brother @Himsenkangin  happy birthday to you.. :^) always love you! #HappyBirthdayKangin http://t.co/xAElJHlW6x
p51
asI1
(lp52
V@FrankieCocozza HAPPY BIRTHDAY TO YOU, HAPPY BIRTHDAY TO YOU, HAPPY BIRTHDAY DEAR FRANKIE, HAPPY BIRTHDAY TO YOU, I LOVE YOU LOTS\U0001f389
p53
aVHappy Birthday! @rachelhowell9 \u2764\ufe0f
p54
aVRT @iKeepItTooReal: Happy Birthday &amp; R.I.P to the angel \U0001f614\U0001f47c Aaliyah. http://t.co/OvLEHrLet3
p55
aVRT @ArrogantCortez: Happy Birthday To The Beautiful Aaliyah http://t.co/eSAxmPtGUI
p56
aVRT @Frencl_Pencil: I act so happy and tough on the outside, but the truth is \u000aI'm not as strong or happy as I seem
p57
aVRT @ArrogantCortez: Happy Birthday To The Beautiful Aaliyah http://t.co/eSAxmPtGUI
p58
aVHappy birthday Aaliyah\U0001f629\U0001f47c\U0001f389\U0001f388
p59
aVRT @RobbieKay_: Song of the week, happy 2014! @ArcticMonkeys https://t.co/ZO142yZzWa
p60
aVI treated my second patient today. Feeling like a pro \U0001f60a
p61
aVRT @iKeepItTooReal: Happy Birthday &amp; R.I.P to the angel \U0001f614\U0001f47c Aaliyah. http://t.co/OvLEHrLet3
p62
aVRT @wildesamantha: Happy 1 year 6 months to my best friend/other half I love you with all my heart and that will never change\U0001f618\U0001f60d\u2764\ufe0f http://t.\u2026
p63
aVRT @NUDESANGEL: so happy worldstar made a iPhone app
p64
aVRT @iKeepItTooReal: Happy Birthday &amp; R.I.P to the angel \U0001f614\U0001f47c Aaliyah. http://t.co/OvLEHrLet3
p65
aV@lindamift happy birthday :)
p66
aVHAPPY HAPPY BIRTHDAY! @itsmekatsumi I love you to infinity and beyond.
p67
aV@jadahtaughtya happy birthday love
p68
aV@anndouglas Thank you for the encouragement :) Hope you have had a full and happy day too!
p69
aVRT @pizzapopniall: my mom should be happy im obsessed with a cool band like one direction and not the wanted am i right ladies am i right
p70
aV@KassidyPickle Happy Birthday\U0001f388
p71
aVjesus take the wheel RT"@G0LDBLUNTZ: Happy Birthday Aaliyah http://t.co/4D8oJNlaZd"
p72
aVRT @EkaPartami: Happy fridayy \u2661
p73
aVYaaaaaaay! Finally! Mar did my eyebrows! *happy dance*
p74
aVRT @iKeepItTooReal: Happy Birthday &amp; R.I.P to the angel \U0001f614\U0001f47c Aaliyah. http://t.co/OvLEHrLet3
p75
aVRT @YKIGS: Also saw @miesamusic live for the first time, was happy to hear her tribute Aaliyah! Her voice is amazing http://t.co/WIRDpDrJm0
p76
aVsoooo extremely happy to hear that my brother @SConway_4 was accepted to mercyhurst today!!\U0001f601\U0001f601\U0001f389 congrats shea xoxox
p77
aVA real boyfriend knows his girl like the back of his hand. He knows when she's mad, sad, happy, hurt, because that's his girl.
p78
aVRT @siwon407: my brother @Himsenkangin  happy birthday to you.. :^) always love you! #HappyBirthdayKangin http://t.co/xAElJHlW6x
p79
aV\u201c@simoneccles: @ScarletBouvier Aww i love last week's bloke "will you be fancying me" so sweet and deserve to be happy\u201d I agree! \u263a\ufe0f
p80
aVHappy 15th birthday to my little sister Sophie :)
p81
aVSo happy that I have Monday off. Got a cold now and could use the extra time to prep for the Spring semester. http://t.co/QE8q6bzh4k
p82
aVso so happy with my *bright* new energizing, happy, sunshine room \U0001f49b\U0001f31e\U0001f4ab (a little too ready for\u2026 http://t.co/69pH3HDYGV
p83
aVRT @OfficialKhalilU: Happy Birthday Beautiful R.I.P http://t.co/4OGHVlglez
p84
aV@shanpat123 HAPPY BIRTHDAY \U0001f64a\U0001f498\U0001f498\U0001f498\U0001f498\U0001f498\U0001f498\U0001f498\U0001f483\U0001f483\U0001f483\U0001f483\U0001f483\U0001f483\U0001f483\U0001f64b\U0001f64b\U0001f64b
p85
aVRT @iKeepItTooReal: Happy Birthday &amp; R.I.P to the angel \U0001f614\U0001f47c Aaliyah. http://t.co/OvLEHrLet3
p86
aVI will be so happy when we see Rob on the set. Going back to listening to some old school throw back music.
p87
aVit makes me so happy when people respond to my lyric tweets with the next line
p88
aVHappy Birthday to my brother Satu Trejo. \u000a\u000aRest in Peace brother
p89
aV@The197five happy happy happy birthday! X
p90
aVRT @krawfishh: happy birthday to my gurlllllllllllll @kit_KATyy http://t.co/7dTGWtR2tP
p91
aVI would love a massage with a happy ending right about now
p92
aVRT @SlimDaddyMas: \u201c@ZahraVictoria: @SlimDaddyMas happy birthday!\U0001f618\u201d thank you darling \U0001f618
p93
aVRT @iKeepItTooReal: Happy Birthday &amp; R.I.P to the angel \U0001f614\U0001f47c Aaliyah. http://t.co/OvLEHrLet3
p94
aVGoing to bed a happy Natty tonight :) This week has been good, and it's still not over. Come on 2014, show me what ya got!
p95
aVRT @byedavina: shopping makes me so happy I feel sooo bad for my future husband
p96
aV@_paigeteague happy birthday gal\U0001f381\U0001f389 see you in the morning, love you lots\U0001f497\U0001f497
p97
aVHappy Birthday To My Hoe \U0001f618
p98
aVHappy Birthday Sade Adu Ase! Ase!
p99
aVRT @Elphaba_Anne: Oh my god happy birthday @JKovisars! You're freaking awesome &amp; I hope your day was filled with amazingness &amp; a plethora o\u2026
p100
aVDon't make decisions when you're angry. Don't make promises when you're happy.
p101
asI2
(lp102
VRT @DaniellePeazer: Happy 18th birthday to the beauty @Ella__Henderson and happy 21st birthday to @zaynmalik! Hope you have amazing days, l\u2026
p103
aVIdek if I can be happy now \U0001f614
p104
aVMy boy @Boreham19 is finally 18, happy birthday mate have a good one!
p105
aVGoing to eat in waco. Happy birthday Kirstie \u2661
p106
aVHAPPY BIRTHDAY @BeechHD LETS START BETTING!!!
p107
aVis it written in the US Constitution that no one can be happy for me like ever or what
p108
aV\u201c@RamoneDaCosta: @MattyLDN_ Happy Birthday Mate, Hope U Enjoyed It.\u201dlove gg\u2764\ufe0f. Yeah it was good bro
p109
aV@ZaneraAli HAPPY BIRTHDAY! May Allah swt bless you. I might bring a birthday muffin in for you tomorrow \U0001f61c love you xx\U0001f618 #happybirthday
p110
aV@petiteisbeauty and he seems to make you very happy and for that i like him :)
p111
aVDoctor assisted suicide is now legal in New Mexico I'm so happy
p112
aV@DeanBLewis happy birthday dean \U0001f44d\U0001f60a
p113
aVSo happy!! \U0001f60a\U0001f60a\U0001f60a
p114
aVSo happy with my finding\U0001f44c
p115
aVHappy Birthday Babygirl \U0001f618\U0001f496\U0001f483\U0001f49e http://t.co/CKq04AewKZ
p116
aVRT @imStewartLittle: @EVO_LAFLARE happy birthdayy!
p117
aVHappy birthday! @austin_tharp31
p118
aVHAPPY BIRTHDAY BESTAYY I LOVE YOU SO MUCH YOU ARE QUEEN B &amp; MY FAVORITE HUMAN BEAN. YOU ARE VERY IMPORTANT AND ID BE A LONER WITHOUT YOU\U0001f38e\U0001f192\u26c4\ufe0f
p119
aVRT @KarinSebayang: Hallo 16! Happy Anniversary 9Month. Langgeng teruss yaaaw{} http://t.co/C8LGmusm0g
p120
aVRT @niggauadamnlie: do you ever met someone whos so perfect and you feel so happy that you met them
p121
aVRT @scooterbraun: Happy day
p122
aVRT @A1_Kirk: Happy birthday big bro @intlbriggs
p123
aVRT @faithf96: Happy birthday @VKritikos15!!\U0001f618\U0001f389\U0001f495
p124
aV"@wynterlovemusic: Blah, just going to chug a bunch of coffee and be happy. x.x" ill be doing the same once I'm off work:p
p125
aVI just want you to be happy. I really hope you know that i'll always love you and it's hard for me to let you go.
p126
aVRT @a_romanowski: Pedicures make my feet happy
p127
aVstayed up till now to say happy birthday to lollipoplols, such a gid besto
p128
aV\u201d@soengdemi27: Happy birthday dekhoo @DessyKhoo"
p129
aVHappy bday to my beautiful little sister! So proud of the lady you are becoming sassy girl #14 http://t.co/rTVOax3kZ0
p130
aVRT @gizz_brittney: @Leone_Farqui happy birthday Leone :)
p131
aV@Tauivae happy birthday bby!! 18 at last:D Have an absolutely Amazing day you deserve it! Love you lots &lt;3 xx
p132
aV@MsRebeccaBlack honestly u're very humble to everyone,u've got a heart of pure gold and always make everyone happy,Please follow me!\U0001f495\U0001f48e\U0001f48e\U0001f495\U0001f48e\U0001f48e\U0001f495
p133
aVHappy birthday my maudy @nizaamandha get older get better yaawww muuuuaaaahh :* \u25c4:D
p134
aVHappy birthday! \U0001f389\u263a@abby7benden
p135
aVI GOT MY FLU SHOT AND I AINT HAPPY
p136
aVHappy birthday @kingzthequeen ! \U0001f483\U0001f378
p137
aVI don't know if I'm happy or sad about never being someone's wcw...
p138
aVRT @Aries_ht: #Aries don't like to keep on guessing when you can just tell them the problem. They will be happy to fix it if they care.
p139
aVImagen_Happy_family_0:  http://t.co/jsUXDep5l3 #fotos
p140
aV#wcw happy one year I love you\U0001f60d\U0001f60d\U0001f60d\U0001f602 @h_hersey http://t.co/V3ibKbrda0
p141
aV#wcw &amp; happy birthday to this gem \U0001f602\U0001f48e\U0001f496 @haleymwinner http://t.co/BNouuqacdZ
p142
aVHappy Birthday to one of my favorite people!! @Weiler_13  \U0001f60a\U0001f381\U0001f389\U0001f389\U0001f388
p143
aVRT @RELATlONSHlP: You make me happy.
p144
aVCan i just be happy for once wit out anyone ruining it
p145
aVyou can be happy tmrw or in a week, or when u get ur hair done, or when u get paid, or when its ur bday or u can stop and just b happy now
p146
aVRT @iqbaale: Hi happy besdey \u000a2650 0100 0065 0200 \u000aKeep Do Positive Things Better and Faster \u000a@aqilah_iqbaale
p147
aVSo happy but so sleepy and hungry !!!! \U0001f633\U0001f633\U0001f633
p148
aVCartel_Happy_family:  http://t.co/ghfrXks0HU #fotos
p149
aVif harry and kendall aren't a PR stunt (even tho i think it is) then all i ask is that she makes him happy &amp; doesn't hurt him, he's my world
p150
aVHappy birthday @miranda__andrew \u2764\ufe0f
p151
aVhappy Walden won that feel he will give Ronnie a much better game than Hawkins would've #snooker
p152
asI3
(lp153
V@ChelseaHaslam1 happy birthday \U0001f389
p154
aV@AustinMahone Happy 3 Years,I'm Proud Of You Babe,Congrats,You Are THE BEST!!\u000ai love you sooooo much,are my everything!!&lt;3
p155
aV@FirdausShaaban MORNING! Happy 8th monthsary babyy I LOVE U SO MUCH! Nahh \u2764\ufe0f\u2764\ufe0f\u2764\ufe0f\u2764\ufe0f\u2764\ufe0f\u2764\ufe0f\u2764\ufe0f\u2764\ufe0f\u2764\ufe0f\u2764\ufe0f\u2764\ufe0f\u2764\ufe0f\u2764\ufe0f\u2764\ufe0f\u2764\ufe0f\u2764\ufe0f\u2764\ufe0f\u2764\ufe0f\u2764\ufe0f\u2764\ufe0f\u2764\ufe0f\u2764\ufe0f\u2764\ufe0f\u2764\ufe0f\u2764\ufe0f\u2764\ufe0f\u2764\ufe0f\u2764\ufe0f\u2764\ufe0f\u2764\ufe0f\u2764\ufe0f\u2764\ufe0f\u2764\ufe0f
p156
aVHappy birthday @Beth1998xox have a good day. See you in nine hours \U0001f618
p157
aV@AustinMahone I love you never leave you no matter what you say about you will never give up vice thank you for making me happy follow me?10
p158
aVRT @keagan_redman: I haven't ever been this happy:)she always tells me how important I am to her.She makes life so injoyable.I love her so \u2026
p159
aVthe @shots is the best app i have ever seen, i love it!!! @justinbieber follow me and @kissjbz ? make me happy, realize our dream x4
p160
aV#AGreatPhilosopherOnceSaid I'm down to ride 'til the sun burn out. If I die today, I'm happy how my life turned out
p161
aV@Alex_OxChambo.....We love you chambo. I will be extremely happy to see you in brazil world cup.
p162
aV@Jun2daKAY Happy Birthday Jun.K Oppa #itsjunkayday
p163
aV@vyshhadadream Happy happpy happpppy birthdaaaay loser :') xx
p164
aVRT @shittysu: happy early valentines gift (-: http://t.co/JHGfp31i8W
p165
aVRT @RELATlONSHlP: It doesn't matter because no one can make me happy but you.
p166
aV@___clo1 happy birthday Clo Clo\U0001f478 love you bby, hope you have a good day\U0001f48b\U0001f498 hope you like your present off us
p167
aVTheres a desk for lefties in my class this makes me berry happy \U0001f60a\U0001f604\U0001f60a
p168
aV\u201cIf we do not feel grateful for what we already have, what makes us think we would be happy with more?\u201d \u2015 John Passaro (via @T_Harv_Eker)
p169
aVRT @PhillCollinns: @DemieyMaj happy birthday \u2764\ufe0f\U0001f618
p170
aVHappy birthday bitch @tommuldowney x x x
p171
aV@arianaa66 happy birthday chick
p172
aVRT @Sqiull_i_arn: Happy 33rd birthday Pitbull
p173
aVI'm bipolar af, I'm happy af less than 20 mins ago I was sad af.
p174
aVRT @NBCChicagoFire: Happy #ChicagoFire Day! http://t.co/nFA7Iv0wfx
p175
aVRT @Iivetoinspire: I blame the Disney movies for letting me grow up believing that everything has a happy ending...
p176
aV@ovationimpact  Happy birthday to youuuuu!! :)
p177
aV@Liamsingleton happy 18th mate hope you have a good day, please tell me I'm first I'm knackered haha!! Love u man\u2764\ufe0f\U0001f51e
p178
aVHappy Birthday to me!
p179
aVFeeling happy that my parents like my boyfriend and didn't embarrass me :)
p180
aV@balqisimanni happy birthday
p181
aVAmiinnnnnnn mksh sarah :* \u2665 "@SRHEVA: Happy birthdaaay @Reyennurul , many happy returns to you , aminn \u2665:*"
p182
aVRT @shaneesingh: Happy birthday @Christina14T \u263a\ufe0f
p183
aVmy baby keeps making those happy noises and im not touching it ...
p184
aVHAPPY BIRTHDAY TO JUN.K!!!!!~ #itsjunkayday
p185
aV@Justin_Bacon Happy 2014, Justin!
p186
aV\u273f\u273f\u273f\u273f\u273f @Michael5SOS HI MICHAEL CLIFFORD IF YOU ARE READING THIS PLEASE FOLLOW ME YOU WILL MAKE ME SO HAPPY \u273f\u273f\u273f\u273f\u273f988
p187
aVRT @zulma_adele: \U0001f601\U0001f601\U0001f601 luh my biiiish @Betty_Taught_U ...happy girl \U0001f60b http://t.co/Dm74zliBUH
p188
aVMourinho's 'inside information' tells him United are not happy with current position: Jose Mourinho has started the mind games with D...
p189
aVIM JUST HAPPY JUSTINS TEST WAS NEGATIVE
p190
aVRT @BabyAnimalPics: he's so happy \u263a http://t.co/gQnRdc6WKR
p191
aV@YolandaHFoster happy belated birthday\u2665 love your new cut #great hair cut
p192
aVhappy birthday haley http://t.co/UoTKXaRHS7
p193
aVWaspie belts make me so happy http://t.co/ItuXBB9Gm5
p194
aVRT @_jerrix: @phanlithxo happy birthday bbg
p195
aVHAPPY BIRTHDAY TO MY BEZZUM! HOPE YOU HAVE A WICKED DAY I LOVE YOU!\u2665@rubysmithhx
p196
aVRT @ChristianStolte: @LaurenGerman found a piece of broken mirror and kept it all day. I've never seen her so happy. #ChicagoFire http://t.\u2026
p197
aV@Tianaa_nicolee seriouslyyyy vanguard don't want to see you happy \U0001f602\U0001f612
p198
aVRT @h0lahoran: @snuggIingstyIes happy birthday\U0001f60a
p199
aVRT @hecoxpadilla: @MitchyPooSays happy birthday :)
p200
aVRT @Riich_GiirlMani: I only want \u261d\ufe0f person to kik me and I will be happy \U0001f612\U0001f629\U0001f62d
p201
aVSo happy about my anatomy midterm! \U0001f601
p202
asI4
(lp203
VRT @cakespirit: \U0001f497\u2716\ufe0f\U0001f497\u2716\ufe0f\U0001f497\u2716\ufe0f\U0001f497\u000a@Calum5SOS Hey sunshine :)\u000a\u000aI love you so much and just a follow would make me so happy I swear\u000adont igNoRe me \u000a\u2026
p204
aV@EkaOvilia happy birthday !
p205
aVRT @cknight5: Happy Birthday baby boy @MattArant
p206
aVHappy birthday han, love this pic @hannahxkinrade xxxxxxxxxxx http://t.co/drm4rS2ZzQ
p207
aVRT @Kevinwoo91: Good Morning from LA!\u000aHave a great day!\u000aHaving In-N-Out for lunch^^\u000a#nowplaying Happy - Pharrell\u000a\u266aBecause I'm happy\u266a http:/\u2026
p208
aVRT @madisonsmitth: Do what makes YOU happy. Screw what everybody else thinks. #yabastards
p209
aVRT @RENQ666: Making a pizza and chicken nuggets, then it's netflix time.. #happy #as #fuck
p210
aVRT @reallifekpop: Happy Birthday to .Jongin [ EXO-K ]  #HappyJonginDay http://t.co/jis28ssxA3
p211
aVA lot of people seem down today and I want to be like 'Don't worry, be happy' but I feel kinda out of sorts myself!
p212
aVBe happy! \u2605 #goodnight #me #happy #fun #boy #new #like http://t.co/sdv6adH4LO
p213
aVHappy birthday bro :) @DeCastro_Jans
p214
aVRT @slsabllaprm: Happy Maulid Nabi Muhammad SAW (12 Rabiul Awal 1435 H) . Proud to be moeslim, Muhammad is our prophet , our hero, our real\u2026
p215
aV@BiohazardBreach this just made me super happy wow
p216
aV@roDelisyoso Thoughtful Tuesday! Choose to #TouchAHeart Choose to #StayPositive Choose to be #Happy Choose to #EnjoyLife #14of365days :-))
p217
aVHAPPY BIRTHDAY TO MY LEX\U0001f61a @lexischneider1 http://t.co/vlBkaVGCIW
p218
aVHappy birthday! I miss you so much girl! :* have a nice day cutie (: @SOYUNASCO1
p219
aVWe'll be happy somewhere.
p220
aVDon't knock what IM doing down cause your not happy
p221
aVRT @DissonSkating: Wishing a happy birthday to Skating &amp; Gymnastics Spectacular star @JoannieRochette! http://t.co/CPaQFUEsY1
p222
aVMAKE ME HAPPY FREDO \U0001f62d PLEASE @AlfredoFlores http://t.co/5wKUe2F0ul
p223
aVRT @COMEDYPEDIA: "money can\u2019t make you happy" WELL IT SURE AS HELL AIN\u2019T GONNA MAKE ME SAD
p224
aVword to my mother all I wish is to be happy wit lauryn \U0001f629\U0001f624 tf
p225
aV@Donna_Morrow yes DM I was so happy to c this\U0001f606 heehee
p226
aVI do the things I do to make me happy and content, not to satisfy you guys. This is my life, and I've always been in charge, how about you?
p227
aVHappy birthday berooh @muhammadsodikk hahaha
p228
aVRT @GreysQTS: A very happy birthday to the one and only Dr. McDreamy! \U0001f60d@PatrickDempsey http://t.co/EMbhrHKKxN
p229
aVAnd how do you make someone happy when they don't want to be
p230
aVRT @onkrissic: Happy Maulid Nabi Muhammad SAW to all muslims in the world, Allah is our god and saviour and Muhammad SAW is our prophet. Ba\u2026
p231
aVRT @shineashbenzo: @lucyhale today is the birthday  of my friend @HaleDelicious and she loves you, please, say "happy b-day pie" 20
p232
aVRT @TrapDrugs: Once you tell yourself that you're gonna live for yourself and not others is the day you'll be happy
p233
aVA big Happy birthday to @_HoopDream_17! \U0001f603 Hope you've had a good one!
p234
aVHappy birthday to rl and rps of exo kai^^ Best wishes!!\u2665 #HappyJonginDay
p235
aVRT @sarasomewhere: Tonight: Another #Austin #Opensource #GIS happy hour! Interested parties, please find your way to @blackstarcoop by arou\u2026
p236
aV@thats0jack Jack, please follow @notcreativetbh because you saved her life on multiple occasions. Happy birthday!! x
p237
aVRT @SailingS0uls__: Lil B - FMBN *MUSIC VIDEO* ALOT OF COOKING AND HAPPY PEOPLE! MUST WATCH http://t.co/X5xmfioWzp @lilbthebasedgod \ue022
p238
aVCheck out "Happy Days ft Keith Sweat" by SILK - http://t.co/8ijnHtD7Yw
p239
aVExcuse my ugly fat face. \u000aMy hair is so short! I'm happy with it c: yey http://t.co/NjHhFy3xDO
p240
aV"@reallifekpop: Happy Birthday to .Jongin [ EXO-K ]  #HappyJonginDay http://t.co/6i7tCc162R"
p241
aVtonight alives old videos make me happy
p242
aV@Heathh1340 Good for y'all! So happy for you. Stick it out and it will be more than worth it.
p243
aVRT @disneywords: I'm thinking of him first and of myself last, and how happy I want him to be. \u2013Angel (Lady and Tramp II)
p244
aVHAPPY BIRTHDAY TO MEEEE\U0001f388
p245
aVRT @onkrissic: Happy Maulid Nabi Muhammad SAW to all muslims in the world, Allah is our god and saviour and Muhammad SAW is our prophet. Ba\u2026
p246
aVRT @KatieZiem: The day that I understand what's going on in precalc will be such a happy one
p247
aVRT @Real_Liam_Payne: @zaynmalik happy birthday bro have a good one tomorrow thanks for having us sorry haven't got ur num in this phone so \u2026
p248
aVRT @dearKIMJONGIN: today's the day &amp; i bet you have no idea how happy we're to celebrating this special day #HappyJonginDay (cr :oaokai) ht\u2026
p249
aVSimple ass niggas happy cuz they fucked my side bitch, but she's just mad at me cus she ain't the one I ride wit! Forever on some fly shit!
p250
aVYESSSSSSSSSSSS!!!!!!!!!! SICA NO HAPPY TOGETHER 3 FUCK YEAH &lt;3
p251
asI5
(lp252
V@BarbDGtoronto There ya go! I know @nickboddy9 will be happy!
p253
aVRT @JayPelle3: It's not easy to find somebody that will keep you happy, be loyal and stick by yourside\ue428 through it all\ue40d...
p254
aV@zaynmalik happy birthday i love you
p255
aVPhoto: Happy 22nd birthday to our Dyo! Hopefully more lasting with Jongin and KaiSoo remained victorious(?)... http://t.co/ZPhrCcOjze
p256
aVRT @Aaroosa_M: Happy 21st Birthday to my big brother Zayn! Hope he had an amazing day! So proud of him Mashallah!\u2026 http://t.co/qPqrLtLXMq
p257
aVRT @nancygfosho: happy birthday you beautiful beautiful man @zaynmalik  http://t.co/R0CYw6NOTS
p258
aVRT @BonnieMcKee: HAPPY 2014 EVERYONE! 2013 was the most amazing year of my life, thanks to you. Thank you for all of your love and support!\u2026
p259
aVRT @elenabroooke: Didn't know it was possible for someone to make me so happy but you do a damn good job
p260
aVRT @Greghoran87: Happy 21st @zaynmalik hope u have a good one bro lots of love Greg,Denise and baby Theo x x
p261
aVRT @KindleLoveMsgs: True love is about being with the person that makes you happy in a way that nobody else can.
p262
aV@zaynmalik Happy birthday love for the last time in 2014. I hope you enjoy yours 21. Love from Portugal Xx
p263
aVRT @LovePhrase: Don't put your happiness in the hands of someone else, because in the end, you're the one who decides if you are happy or n\u2026
p264
aVRT @luisraulbanda: @Gbaby_1994 Happy Birthday \U0001f64c
p265
aVYayy last night shift is over ... 3 days off come \u263a\u263a#xo xo happy \U0001f61b
p266
aV@zaynmalik happy birthday to you, happy birthday to you, happy birthday dear zayn, happy birthday to you! te amo te amo
p267
aV@zaynmalik okay hello bby I just wanted to say happy birthday for the last time today\u000a\u000ahope you had a wonderful day ilysm
p268
aV@jackreeson HAPPY BIRTHDAY MAN http://t.co/FJoCImmb2D
p269
aVHappy birthday you perfect angel. I love you so much. @zaynmalik
p270
aVI cry when I'm \u000a- mad \u000a- sad / hurt \u000a- happy \u000aDamn ! I cry for everything .
p271
aV@justinbieber you're all that matters to me. I would be very happy if you follow me. I love you, notice me 13
p272
aV@DaaniHansen happy birthday :)
p273
aVHappy New Year!
p274
aVIt's a couples thing. Roxys lastnight for babes birthday! Happy birthday again beautiful! \u2764\ufe0f\U0001f618\U0001f48f\U0001f389\U0001f388 _yannixo http://t.co/6rxEo6KNVx
p275
aVRT @NiallOfficial: Happy 21st birthday to my brother @zaynmalik  ! Love you Man!
p276
aVI may not be perfect but at least I'm happy with my life.
p277
aVHappy Monday! Complete workweek #toinks \U0001f633 @ MDC 100 http://t.co/5HBnNONEkT
p278
aV@DaaniHansen  happy birthday :)
p279
aV@zaynmalik This is for you baby! Happy birthday!  I love U! http://t.co/SS5PLF1n5q  5
p280
aV@TiniNiki happy birthday, girl :) I miss you!!
p281
aV@zaynmalik one last happy birthday babe! :)
p282
aV@zaynmalik  Happy birthday love! All the best wishes for you,today and always &lt;3
p283
aVRT @espn: Keenan Allen almost gave up on football.\u000a\u000a@Chargers fans are quite happy he didn\u2019t.
p284
aVHappy birthday!!! \U0001f618\U0001f60a\U0001f38a\U0001f388\U0001f389 xoxox @zaynmalik
p285
aVPhoto: Nanay Monica, happy birthday! I know there\u2019s a big celebration above for you which is way better... http://t.co/0I15iSBBXe
p286
aV#HappyBirthdayZayn #HappyBirthdayZayn i love you\u000a\u2661 @zaynmalik \u2661\u000aHappy birthday!! \u000a\u000a#ChileanDirectioner \u000a\u000a*35
p287
aV@zaynmalik  Happy 21st birthday zayn
p288
aVRT @bieberunlocked: I wish I was famous so I could inspire people and make people happy
p289
aVMan I was helluh happy for a minute.
p290
aV@NicoleeStevenss Happy Birthday beautiful finally 18 see you soon and hope have a good day... I love you you old girl ;) xxxxx
p291
aV@zaynmalik Prince thanks for saving my life I love you much and hope one day to tell you this in person Happy Birthday Love&lt;3 #Brazilian x75
p292
aVHappy Birthday @jennaferguson12 \ue418 would've texted you by now but dropped my phone in water.. Hope you had a good day \ue32c\ue32a\ue32d\ue328\ue32b\ue022
p293
aVHappy 18th Birthday!!!\U0001f618\U0001f389\U0001f37b\U0001f64c @CharlotteF_TW @RachelFerron_TW
p294
aVShe told me it wasn't that I couldn't be happy without someone, but that with someone I would become more.
p295
aV@camilacabello97 you make me happy
p296
aVRT @NiallOfficial: Happy 21st birthday to my brother @zaynmalik  ! Love you Man!
p297
aV@zaynmalik Happy Birtday my life , i love you soo much , oh my god &lt;3333333
p298
aV@zaynmalik Happy Birthday honey, I love you much \u2661
p299
aVHappy 21st @carl_loso, hope you have an amazing day even though your a stalker and decided to follow me to primary school, college &amp; uni \U0001f389\U0001f389\U0001f388
p300
aV@DirkaDez happy birthday!!!
p301
aVRT @_HurricaneNyah: I couldn't name 5 things that make me happy if I tried
p302
as.